(lp0
(dp1
S'case'
p2
S'A defects then B defects'
p3
sS'CBA'
p4
F0.75
sS'belief'
p5
cnumpy.core.multiarray
scalar
p6
(cnumpy
dtype
p7
(S'f8'
p8
I0
I1
tp9
Rp10
(I3
S'<'
p11
NNNI-1
I-1
I0
tp12
bS'\x00\x00\x00\x00\x00\x00\xe8?'
p13
tp14
Rp15
sS'CAB'
p16
F0.75
sS'k'
p17
I0
sS'type'
p18
S'RA'
p19
sS'round'
p20
I0
sS'believer'
p21
I0
sa(dp22
g2
g3
sg4
F0.75
sg5
g6
(g10
S'\x00\x00\x00\x00\x00\x00\xe8?'
p23
tp24
Rp25
sg16
F0.75
sg17
I1
sg18
g19
sg20
I0
sg21
I0
sa(dp26
g2
g3
sg4
F0.75
sg5
g6
(g10
S'\xe7\xd3t\x8aPZ\xd7?'
p27
tp28
Rp29
sg16
F0.75
sg17
I0
sg18
g19
sg20
I1
sg21
I0
sa(dp30
g2
g3
sg4
F0.75
sg5
g6
(g10
S'\x00\x00\x00\x00\x00\x00\xe8?'
p31
tp32
Rp33
sg16
F0.75
sg17
I1
sg18
g19
sg20
I1
sg21
I0
sa(dp34
g2
g3
sg4
F0.75
sg5
g6
(g10
S'\xe7\xd3t\x8aPZ\xd7?'
p35
tp36
Rp37
sg16
F0.75
sg17
I0
sg18
g19
sg20
I2
sg21
I0
sa(dp38
g2
g3
sg4
F0.75
sg5
g6
(g10
S'\xe7\xd3t\x8aPZ\xd7?'
p39
tp40
Rp41
sg16
F0.75
sg17
I1
sg18
g19
sg20
I2
sg21
I0
sa(dp42
g2
g3
sg4
F0.75
sg5
g6
(g10
S'\x00\x00\x00\x00\x00\x00\xe8?'
p43
tp44
Rp45
sg16
F0.75
sg17
I0
sg18
g19
sg20
I0
sg21
I1
sa(dp46
g2
g3
sg4
F0.75
sg5
g6
(g10
S'\x00\x00\x00\x00\x00\x00\xe8?'
p47
tp48
Rp49
sg16
F0.75
sg17
I1
sg18
g19
sg20
I0
sg21
I1
sa(dp50
g2
g3
sg4
F0.75
sg5
g6
(g10
S'\x00\x00\x00\x00\x00\x00\xe8?'
p51
tp52
Rp53
sg16
F0.75
sg17
I0
sg18
g19
sg20
I1
sg21
I1
sa(dp54
g2
g3
sg4
F0.75
sg5
g6
(g10
S'\xe7\xd3t\x8aPZ\xd7?'
p55
tp56
Rp57
sg16
F0.75
sg17
I1
sg18
g19
sg20
I1
sg21
I1
sa(dp58
g2
g3
sg4
F0.75
sg5
g6
(g10
S'\xfc_\xd0\xa6\x06\xf0\xe5?'
p59
tp60
Rp61
sg16
F0.75
sg17
I0
sg18
g19
sg20
I2
sg21
I1
sa(dp62
g2
g3
sg4
F0.75
sg5
g6
(g10
S'\xe7\xd3t\x8aPZ\xd7?'
p63
tp64
Rp65
sg16
F0.75
sg17
I1
sg18
g19
sg20
I2
sg21
I1
sa(dp66
g2
S'Forgiveness'
p67
sg4
F0.75
sg5
g6
(g10
S'\x00\x00\x00\x00\x00\x00\xe8?'
p68
tp69
Rp70
sg16
F0.75
sg17
I0
sg18
g19
sg20
I0
sg21
I0
sa(dp71
g2
g67
sg4
F0.75
sg5
g6
(g10
S'\x00\x00\x00\x00\x00\x00\xe8?'
p72
tp73
Rp74
sg16
F0.75
sg17
I1
sg18
g19
sg20
I0
sg21
I0
sa(dp75
g2
g67
sg4
F0.75
sg5
g6
(g10
S'\xe7\xd3t\x8aPZ\xd7?'
p76
tp77
Rp78
sg16
F0.75
sg17
I0
sg18
g19
sg20
I1
sg21
I0
sa(dp79
g2
g67
sg4
F0.75
sg5
g6
(g10
S'\x00\x00\x00\x00\x00\x00\xe8?'
p80
tp81
Rp82
sg16
F0.75
sg17
I1
sg18
g19
sg20
I1
sg21
I0
sa(dp83
g2
g67
sg4
F0.75
sg5
g6
(g10
S'\xe7\xd3t\x8aPZ\xd7?'
p84
tp85
Rp86
sg16
F0.75
sg17
I0
sg18
g19
sg20
I2
sg21
I0
sa(dp87
g2
g67
sg4
F0.75
sg5
g6
(g10
S'\x15\x97{\xab\x9ad\xef?'
p88
tp89
Rp90
sg16
F0.75
sg17
I1
sg18
g19
sg20
I2
sg21
I0
sa(dp91
g2
g67
sg4
F0.75
sg5
g6
(g10
S'\x00\x00\x00\x00\x00\x00\xe8?'
p92
tp93
Rp94
sg16
F0.75
sg17
I0
sg18
g19
sg20
I0
sg21
I1
sa(dp95
g2
g67
sg4
F0.75
sg5
g6
(g10
S'\x00\x00\x00\x00\x00\x00\xe8?'
p96
tp97
Rp98
sg16
F0.75
sg17
I1
sg18
g19
sg20
I0
sg21
I1
sa(dp99
g2
g67
sg4
F0.75
sg5
g6
(g10
S'\x00\x00\x00\x00\x00\x00\xe8?'
p100
tp101
Rp102
sg16
F0.75
sg17
I0
sg18
g19
sg20
I1
sg21
I1
sa(dp103
g2
g67
sg4
F0.75
sg5
g6
(g10
S'\xe7\xd3t\x8aPZ\xd7?'
p104
tp105
Rp106
sg16
F0.75
sg17
I1
sg18
g19
sg20
I1
sg21
I1
sa(dp107
g2
g67
sg4
F0.75
sg5
g6
(g10
S'\xa0\xf8\x95\xf6\xbeo\xee?'
p108
tp109
Rp110
sg16
F0.75
sg17
I0
sg18
g19
sg20
I2
sg21
I1
sa(dp111
g2
g67
sg4
F0.75
sg5
g6
(g10
S'\xe7\xd3t\x8aPZ\xd7?'
p112
tp113
Rp114
sg16
F0.75
sg17
I1
sg18
g19
sg20
I2
sg21
I1
sa(dp115
g2
S'CD'
p116
sg4
F0.75
sg5
g6
(g10
S'\x00\x00\x00\x00\x00\x00\xe8?'
p117
tp118
Rp119
sg16
F0.75
sg17
I0
sg18
g19
sg20
I0
sg21
I0
sa(dp120
g2
g116
sg4
F0.75
sg5
g6
(g10
S'\x00\x00\x00\x00\x00\x00\xe8?'
p121
tp122
Rp123
sg16
F0.75
sg17
I1
sg18
g19
sg20
I0
sg21
I0
sa(dp124
g2
g116
sg4
F0.75
sg5
g6
(g10
S'\xe7\xd3t\x8aPZ\xd7?'
p125
tp126
Rp127
sg16
F0.75
sg17
I0
sg18
g19
sg20
I1
sg21
I0
sa(dp128
g2
g116
sg4
F0.75
sg5
g6
(g10
S'\x15\x97{\xab\x9ad\xef?'
p129
tp130
Rp131
sg16
F0.75
sg17
I1
sg18
g19
sg20
I1
sg21
I0
sa(dp132
g2
g116
sg4
F0.75
sg5
g6
(g10
S'\x0b\xa2\xc1wFo\xed?'
p133
tp134
Rp135
sg16
F0.75
sg17
I0
sg18
g19
sg20
I2
sg21
I0
sa(dp136
g2
g116
sg4
F0.75
sg5
g6
(g10
S'\x15\x97{\xab\x9ad\xef?'
p137
tp138
Rp139
sg16
F0.75
sg17
I1
sg18
g19
sg20
I2
sg21
I0
sa(dp140
g2
g116
sg4
F0.75
sg5
g6
(g10
S'\x00\x00\x00\x00\x00\x00\xe8?'
p141
tp142
Rp143
sg16
F0.75
sg17
I0
sg18
g19
sg20
I0
sg21
I1
sa(dp144
g2
g116
sg4
F0.75
sg5
g6
(g10
S'\x00\x00\x00\x00\x00\x00\xe8?'
p145
tp146
Rp147
sg16
F0.75
sg17
I1
sg18
g19
sg20
I0
sg21
I1
sa(dp148
g2
g116
sg4
F0.75
sg5
g6
(g10
S'\x15\x97{\xab\x9ad\xef?'
p149
tp150
Rp151
sg16
F0.75
sg17
I0
sg18
g19
sg20
I1
sg21
I1
sa(dp152
g2
g116
sg4
F0.75
sg5
g6
(g10
S'\xe7\xd3t\x8aPZ\xd7?'
p153
tp154
Rp155
sg16
F0.75
sg17
I1
sg18
g19
sg20
I1
sg21
I1
sa(dp156
g2
g116
sg4
F0.75
sg5
g6
(g10
S'\x15\x97{\xab\x9ad\xef?'
p157
tp158
Rp159
sg16
F0.75
sg17
I0
sg18
g19
sg20
I2
sg21
I1
sa(dp160
g2
g116
sg4
F0.75
sg5
g6
(g10
S'-\\\x85\x1b\xbb\x10\xed?'
p161
tp162
Rp163
sg16
F0.75
sg17
I1
sg18
g19
sg20
I2
sg21
I1
sa(dp164
g2
S'DC'
p165
sg4
F0.75
sg5
g6
(g10
S'\x00\x00\x00\x00\x00\x00\xe8?'
p166
tp167
Rp168
sg16
F0.75
sg17
I0
sg18
g19
sg20
I0
sg21
I0
sa(dp169
g2
g165
sg4
F0.75
sg5
g6
(g10
S'\x00\x00\x00\x00\x00\x00\xe8?'
p170
tp171
Rp172
sg16
F0.75
sg17
I1
sg18
g19
sg20
I0
sg21
I0
sa(dp173
g2
g165
sg4
F0.75
sg5
g6
(g10
S'\x15\x97{\xab\x9ad\xef?'
p174
tp175
Rp176
sg16
F0.75
sg17
I0
sg18
g19
sg20
I1
sg21
I0
sa(dp177
g2
g165
sg4
F0.75
sg5
g6
(g10
S'\x15\x97{\xab\x9ad\xef?'
p178
tp179
Rp180
sg16
F0.75
sg17
I1
sg18
g19
sg20
I1
sg21
I0
sa(dp181
g2
g165
sg4
F0.75
sg5
g6
(g10
S'\x8d1x\r\x8f\xba\xe7?'
p182
tp183
Rp184
sg16
F0.75
sg17
I0
sg18
g19
sg20
I2
sg21
I0
sa(dp185
g2
g165
sg4
F0.75
sg5
g6
(g10
S'\x15\x97{\xab\x9ad\xef?'
p186
tp187
Rp188
sg16
F0.75
sg17
I1
sg18
g19
sg20
I2
sg21
I0
sa(dp189
g2
g165
sg4
F0.75
sg5
g6
(g10
S'\x00\x00\x00\x00\x00\x00\xe8?'
p190
tp191
Rp192
sg16
F0.75
sg17
I0
sg18
g19
sg20
I0
sg21
I1
sa(dp193
g2
g165
sg4
F0.75
sg5
g6
(g10
S'\x00\x00\x00\x00\x00\x00\xe8?'
p194
tp195
Rp196
sg16
F0.75
sg17
I1
sg18
g19
sg20
I0
sg21
I1
sa(dp197
g2
g165
sg4
F0.75
sg5
g6
(g10
S'\x15\x97{\xab\x9ad\xef?'
p198
tp199
Rp200
sg16
F0.75
sg17
I0
sg18
g19
sg20
I1
sg21
I1
sa(dp201
g2
g165
sg4
F0.75
sg5
g6
(g10
S'\x15\x97{\xab\x9ad\xef?'
p202
tp203
Rp204
sg16
F0.75
sg17
I1
sg18
g19
sg20
I1
sg21
I1
sa(dp205
g2
g165
sg4
F0.75
sg5
g6
(g10
S'\x15\x97{\xab\x9ad\xef?'
p206
tp207
Rp208
sg16
F0.75
sg17
I0
sg18
g19
sg20
I2
sg21
I1
sa(dp209
g2
g165
sg4
F0.75
sg5
g6
(g10
S'-\\\x85\x1b\xbb\x10\xed?'
p210
tp211
Rp212
sg16
F0.75
sg17
I1
sg18
g19
sg20
I2
sg21
I1
sa(dp213
g2
S'Only B defects'
p214
sg4
F0.75
sg5
g6
(g10
S'\x00\x00\x00\x00\x00\x00\xe8?'
p215
tp216
Rp217
sg16
F0.75
sg17
I0
sg18
g19
sg20
I0
sg21
I0
sa(dp218
g2
g214
sg4
F0.75
sg5
g6
(g10
S'\x00\x00\x00\x00\x00\x00\xe8?'
p219
tp220
Rp221
sg16
F0.75
sg17
I1
sg18
g19
sg20
I0
sg21
I0
sa(dp222
g2
g214
sg4
F0.75
sg5
g6
(g10
S'\x00\x00\x00\x00\x00\x00\xe8?'
p223
tp224
Rp225
sg16
F0.75
sg17
I0
sg18
g19
sg20
I1
sg21
I0
sa(dp226
g2
g214
sg4
F0.75
sg5
g6
(g10
S'\xe7\xd3t\x8aPZ\xd7?'
p227
tp228
Rp229
sg16
F0.75
sg17
I1
sg18
g19
sg20
I1
sg21
I0
sa(dp230
g2
g214
sg4
F0.75
sg5
g6
(g10
S'\x00\x00\x00\x00\x00\x00\xe8?'
p231
tp232
Rp233
sg16
F0.75
sg17
I0
sg18
g19
sg20
I0
sg21
I1
sa(dp234
g2
g214
sg4
F0.75
sg5
g6
(g10
S'\x00\x00\x00\x00\x00\x00\xe8?'
p235
tp236
Rp237
sg16
F0.75
sg17
I1
sg18
g19
sg20
I0
sg21
I1
sa(dp238
g2
g214
sg4
F0.75
sg5
g6
(g10
S'\xe7\xd3t\x8aPZ\xd7?'
p239
tp240
Rp241
sg16
F0.75
sg17
I0
sg18
g19
sg20
I1
sg21
I1
sa(dp242
g2
g214
sg4
F0.75
sg5
g6
(g10
S'\x00\x00\x00\x00\x00\x00\xe8?'
p243
tp244
Rp245
sg16
F0.75
sg17
I1
sg18
g19
sg20
I1
sg21
I1
sa.