(lp0
(dp1
S'case'
p2
S'A defects then B defects'
p3
sS'CBA'
p4
F0.75
sS'belief'
p5
cnumpy.core.multiarray
scalar
p6
(cnumpy
dtype
p7
(S'f8'
p8
I0
I1
tp9
Rp10
(I3
S'<'
p11
NNNI-1
I-1
I0
tp12
bS'\x00\x00\x00\x00\x00\x00\xe8?'
p13
tp14
Rp15
sS'CAB'
p16
F0.75
sS'k'
p17
I0
sS'type'
p18
S'RA'
p19
sS'round'
p20
I0
sS'believer'
p21
I0
sa(dp22
g2
g3
sg4
F0.75
sg5
g6
(g10
S'\x00\x00\x00\x00\x00\x00\xe8?'
p23
tp24
Rp25
sg16
F0.75
sg17
I1
sg18
g19
sg20
I0
sg21
I0
sa(dp26
g2
g3
sg4
F0.75
sg5
g6
(g10
S'\x00\x00\x00\x00\x00\x00\xe8?'
p27
tp28
Rp29
sg16
F0.75
sg17
I2
sg18
g19
sg20
I0
sg21
I0
sa(dp30
g2
g3
sg4
F0.75
sg5
g6
(g10
S'\xe7\xd3t\x8aPZ\xd7?'
p31
tp32
Rp33
sg16
F0.75
sg17
I0
sg18
g19
sg20
I1
sg21
I0
sa(dp34
g2
g3
sg4
F0.75
sg5
g6
(g10
S'\x00\x00\x00\x00\x00\x00\xe8?'
p35
tp36
Rp37
sg16
F0.75
sg17
I1
sg18
g19
sg20
I1
sg21
I0
sa(dp38
g2
g3
sg4
F0.75
sg5
g6
(g10
S'\xe7\xd3t\x8aPZ\xd7?'
p39
tp40
Rp41
sg16
F0.75
sg17
I2
sg18
g19
sg20
I1
sg21
I0
sa(dp42
g2
g3
sg4
F0.75
sg5
g6
(g10
S'\xe7\xd3t\x8aPZ\xd7?'
p43
tp44
Rp45
sg16
F0.75
sg17
I0
sg18
g19
sg20
I2
sg21
I0
sa(dp46
g2
g3
sg4
F0.75
sg5
g6
(g10
S'\xfc_\xd0\xa6\x06\xf0\xe5?'
p47
tp48
Rp49
sg16
F0.75
sg17
I1
sg18
g19
sg20
I2
sg21
I0
sa(dp50
g2
g3
sg4
F0.75
sg5
g6
(g10
S'\xe7\xd3t\x8aPZ\xd7?'
p51
tp52
Rp53
sg16
F0.75
sg17
I2
sg18
g19
sg20
I2
sg21
I0
sa(dp54
g2
g3
sg4
F0.75
sg5
g6
(g10
S'\x00\x00\x00\x00\x00\x00\xe8?'
p55
tp56
Rp57
sg16
F0.75
sg17
I0
sg18
g19
sg20
I0
sg21
I1
sa(dp58
g2
g3
sg4
F0.75
sg5
g6
(g10
S'\x00\x00\x00\x00\x00\x00\xe8?'
p59
tp60
Rp61
sg16
F0.75
sg17
I1
sg18
g19
sg20
I0
sg21
I1
sa(dp62
g2
g3
sg4
F0.75
sg5
g6
(g10
S'\x00\x00\x00\x00\x00\x00\xe8?'
p63
tp64
Rp65
sg16
F0.75
sg17
I2
sg18
g19
sg20
I0
sg21
I1
sa(dp66
g2
g3
sg4
F0.75
sg5
g6
(g10
S'\x00\x00\x00\x00\x00\x00\xe8?'
p67
tp68
Rp69
sg16
F0.75
sg17
I0
sg18
g19
sg20
I1
sg21
I1
sa(dp70
g2
g3
sg4
F0.75
sg5
g6
(g10
S'\xe7\xd3t\x8aPZ\xd7?'
p71
tp72
Rp73
sg16
F0.75
sg17
I1
sg18
g19
sg20
I1
sg21
I1
sa(dp74
g2
g3
sg4
F0.75
sg5
g6
(g10
S'\x00\x00\x00\x00\x00\x00\xe8?'
p75
tp76
Rp77
sg16
F0.75
sg17
I2
sg18
g19
sg20
I1
sg21
I1
sa(dp78
g2
g3
sg4
F0.75
sg5
g6
(g10
S'\xfc_\xd0\xa6\x06\xf0\xe5?'
p79
tp80
Rp81
sg16
F0.75
sg17
I0
sg18
g19
sg20
I2
sg21
I1
sa(dp82
g2
g3
sg4
F0.75
sg5
g6
(g10
S'\xe7\xd3t\x8aPZ\xd7?'
p83
tp84
Rp85
sg16
F0.75
sg17
I1
sg18
g19
sg20
I2
sg21
I1
sa(dp86
g2
g3
sg4
F0.75
sg5
g6
(g10
S'\xe7\xd3t\x8aPZ\xd7?'
p87
tp88
Rp89
sg16
F0.75
sg17
I2
sg18
g19
sg20
I2
sg21
I1
sa(dp90
g2
S'Forgiveness'
p91
sg4
F0.75
sg5
g6
(g10
S'\x00\x00\x00\x00\x00\x00\xe8?'
p92
tp93
Rp94
sg16
F0.75
sg17
I0
sg18
g19
sg20
I0
sg21
I0
sa(dp95
g2
g91
sg4
F0.75
sg5
g6
(g10
S'\x00\x00\x00\x00\x00\x00\xe8?'
p96
tp97
Rp98
sg16
F0.75
sg17
I1
sg18
g19
sg20
I0
sg21
I0
sa(dp99
g2
g91
sg4
F0.75
sg5
g6
(g10
S'\x00\x00\x00\x00\x00\x00\xe8?'
p100
tp101
Rp102
sg16
F0.75
sg17
I2
sg18
g19
sg20
I0
sg21
I0
sa(dp103
g2
g91
sg4
F0.75
sg5
g6
(g10
S'\xe7\xd3t\x8aPZ\xd7?'
p104
tp105
Rp106
sg16
F0.75
sg17
I0
sg18
g19
sg20
I1
sg21
I0
sa(dp107
g2
g91
sg4
F0.75
sg5
g6
(g10
S'\x00\x00\x00\x00\x00\x00\xe8?'
p108
tp109
Rp110
sg16
F0.75
sg17
I1
sg18
g19
sg20
I1
sg21
I0
sa(dp111
g2
g91
sg4
F0.75
sg5
g6
(g10
S'\xe7\xd3t\x8aPZ\xd7?'
p112
tp113
Rp114
sg16
F0.75
sg17
I2
sg18
g19
sg20
I1
sg21
I0
sa(dp115
g2
g91
sg4
F0.75
sg5
g6
(g10
S'\xe7\xd3t\x8aPZ\xd7?'
p116
tp117
Rp118
sg16
F0.75
sg17
I0
sg18
g19
sg20
I2
sg21
I0
sa(dp119
g2
g91
sg4
F0.75
sg5
g6
(g10
S'\xa0\xf8\x95\xf6\xbeo\xee?'
p120
tp121
Rp122
sg16
F0.75
sg17
I1
sg18
g19
sg20
I2
sg21
I0
sa(dp123
g2
g91
sg4
F0.75
sg5
g6
(g10
S'\xe7\xd3t\x8aPZ\xd7?'
p124
tp125
Rp126
sg16
F0.75
sg17
I2
sg18
g19
sg20
I2
sg21
I0
sa(dp127
g2
g91
sg4
F0.75
sg5
g6
(g10
S'\x00\x00\x00\x00\x00\x00\xe8?'
p128
tp129
Rp130
sg16
F0.75
sg17
I0
sg18
g19
sg20
I0
sg21
I1
sa(dp131
g2
g91
sg4
F0.75
sg5
g6
(g10
S'\x00\x00\x00\x00\x00\x00\xe8?'
p132
tp133
Rp134
sg16
F0.75
sg17
I1
sg18
g19
sg20
I0
sg21
I1
sa(dp135
g2
g91
sg4
F0.75
sg5
g6
(g10
S'\x00\x00\x00\x00\x00\x00\xe8?'
p136
tp137
Rp138
sg16
F0.75
sg17
I2
sg18
g19
sg20
I0
sg21
I1
sa(dp139
g2
g91
sg4
F0.75
sg5
g6
(g10
S'\x00\x00\x00\x00\x00\x00\xe8?'
p140
tp141
Rp142
sg16
F0.75
sg17
I0
sg18
g19
sg20
I1
sg21
I1
sa(dp143
g2
g91
sg4
F0.75
sg5
g6
(g10
S'\xe7\xd3t\x8aPZ\xd7?'
p144
tp145
Rp146
sg16
F0.75
sg17
I1
sg18
g19
sg20
I1
sg21
I1
sa(dp147
g2
g91
sg4
F0.75
sg5
g6
(g10
S'\x00\x00\x00\x00\x00\x00\xe8?'
p148
tp149
Rp150
sg16
F0.75
sg17
I2
sg18
g19
sg20
I1
sg21
I1
sa(dp151
g2
g91
sg4
F0.75
sg5
g6
(g10
S'\xa0\xf8\x95\xf6\xbeo\xee?'
p152
tp153
Rp154
sg16
F0.75
sg17
I0
sg18
g19
sg20
I2
sg21
I1
sa(dp155
g2
g91
sg4
F0.75
sg5
g6
(g10
S'\xe7\xd3t\x8aPZ\xd7?'
p156
tp157
Rp158
sg16
F0.75
sg17
I1
sg18
g19
sg20
I2
sg21
I1
sa(dp159
g2
g91
sg4
F0.75
sg5
g6
(g10
S'\x15\x97{\xab\x9ad\xef?'
p160
tp161
Rp162
sg16
F0.75
sg17
I2
sg18
g19
sg20
I2
sg21
I1
sa(dp163
g2
S'CD'
p164
sg4
F0.75
sg5
g6
(g10
S'\x00\x00\x00\x00\x00\x00\xe8?'
p165
tp166
Rp167
sg16
F0.75
sg17
I0
sg18
g19
sg20
I0
sg21
I0
sa(dp168
g2
g164
sg4
F0.75
sg5
g6
(g10
S'\x00\x00\x00\x00\x00\x00\xe8?'
p169
tp170
Rp171
sg16
F0.75
sg17
I1
sg18
g19
sg20
I0
sg21
I0
sa(dp172
g2
g164
sg4
F0.75
sg5
g6
(g10
S'\x00\x00\x00\x00\x00\x00\xe8?'
p173
tp174
Rp175
sg16
F0.75
sg17
I2
sg18
g19
sg20
I0
sg21
I0
sa(dp176
g2
g164
sg4
F0.75
sg5
g6
(g10
S'\xe7\xd3t\x8aPZ\xd7?'
p177
tp178
Rp179
sg16
F0.75
sg17
I0
sg18
g19
sg20
I1
sg21
I0
sa(dp180
g2
g164
sg4
F0.75
sg5
g6
(g10
S'\x15\x97{\xab\x9ad\xef?'
p181
tp182
Rp183
sg16
F0.75
sg17
I1
sg18
g19
sg20
I1
sg21
I0
sa(dp184
g2
g164
sg4
F0.75
sg5
g6
(g10
S'\xe7\xd3t\x8aPZ\xd7?'
p185
tp186
Rp187
sg16
F0.75
sg17
I2
sg18
g19
sg20
I1
sg21
I0
sa(dp188
g2
g164
sg4
F0.75
sg5
g6
(g10
S'\x0b\xa2\xc1wFo\xed?'
p189
tp190
Rp191
sg16
F0.75
sg17
I0
sg18
g19
sg20
I2
sg21
I0
sa(dp192
g2
g164
sg4
F0.75
sg5
g6
(g10
S'\x15\x97{\xab\x9ad\xef?'
p193
tp194
Rp195
sg16
F0.75
sg17
I1
sg18
g19
sg20
I2
sg21
I0
sa(dp196
g2
g164
sg4
F0.75
sg5
g6
(g10
S'-\\\x85\x1b\xbb\x10\xed?'
p197
tp198
Rp199
sg16
F0.75
sg17
I2
sg18
g19
sg20
I2
sg21
I0
sa(dp200
g2
g164
sg4
F0.75
sg5
g6
(g10
S'\x00\x00\x00\x00\x00\x00\xe8?'
p201
tp202
Rp203
sg16
F0.75
sg17
I0
sg18
g19
sg20
I0
sg21
I1
sa(dp204
g2
g164
sg4
F0.75
sg5
g6
(g10
S'\x00\x00\x00\x00\x00\x00\xe8?'
p205
tp206
Rp207
sg16
F0.75
sg17
I1
sg18
g19
sg20
I0
sg21
I1
sa(dp208
g2
g164
sg4
F0.75
sg5
g6
(g10
S'\x00\x00\x00\x00\x00\x00\xe8?'
p209
tp210
Rp211
sg16
F0.75
sg17
I2
sg18
g19
sg20
I0
sg21
I1
sa(dp212
g2
g164
sg4
F0.75
sg5
g6
(g10
S'\x15\x97{\xab\x9ad\xef?'
p213
tp214
Rp215
sg16
F0.75
sg17
I0
sg18
g19
sg20
I1
sg21
I1
sa(dp216
g2
g164
sg4
F0.75
sg5
g6
(g10
S'\xe7\xd3t\x8aPZ\xd7?'
p217
tp218
Rp219
sg16
F0.75
sg17
I1
sg18
g19
sg20
I1
sg21
I1
sa(dp220
g2
g164
sg4
F0.75
sg5
g6
(g10
S'\x15\x97{\xab\x9ad\xef?'
p221
tp222
Rp223
sg16
F0.75
sg17
I2
sg18
g19
sg20
I1
sg21
I1
sa(dp224
g2
g164
sg4
F0.75
sg5
g6
(g10
S'\x15\x97{\xab\x9ad\xef?'
p225
tp226
Rp227
sg16
F0.75
sg17
I0
sg18
g19
sg20
I2
sg21
I1
sa(dp228
g2
g164
sg4
F0.75
sg5
g6
(g10
S'\x0b\xa2\xc1wFo\xed?'
p229
tp230
Rp231
sg16
F0.75
sg17
I1
sg18
g19
sg20
I2
sg21
I1
sa(dp232
g2
g164
sg4
F0.75
sg5
g6
(g10
S'\x15\x97{\xab\x9ad\xef?'
p233
tp234
Rp235
sg16
F0.75
sg17
I2
sg18
g19
sg20
I2
sg21
I1
sa(dp236
g2
S'DC'
p237
sg4
F0.75
sg5
g6
(g10
S'\x00\x00\x00\x00\x00\x00\xe8?'
p238
tp239
Rp240
sg16
F0.75
sg17
I0
sg18
g19
sg20
I0
sg21
I0
sa(dp241
g2
g237
sg4
F0.75
sg5
g6
(g10
S'\x00\x00\x00\x00\x00\x00\xe8?'
p242
tp243
Rp244
sg16
F0.75
sg17
I1
sg18
g19
sg20
I0
sg21
I0
sa(dp245
g2
g237
sg4
F0.75
sg5
g6
(g10
S'\x00\x00\x00\x00\x00\x00\xe8?'
p246
tp247
Rp248
sg16
F0.75
sg17
I2
sg18
g19
sg20
I0
sg21
I0
sa(dp249
g2
g237
sg4
F0.75
sg5
g6
(g10
S'\x15\x97{\xab\x9ad\xef?'
p250
tp251
Rp252
sg16
F0.75
sg17
I0
sg18
g19
sg20
I1
sg21
I0
sa(dp253
g2
g237
sg4
F0.75
sg5
g6
(g10
S'\x15\x97{\xab\x9ad\xef?'
p254
tp255
Rp256
sg16
F0.75
sg17
I1
sg18
g19
sg20
I1
sg21
I0
sa(dp257
g2
g237
sg4
F0.75
sg5
g6
(g10
S'\x15\x97{\xab\x9ad\xef?'
p258
tp259
Rp260
sg16
F0.75
sg17
I2
sg18
g19
sg20
I1
sg21
I0
sa(dp261
g2
g237
sg4
F0.75
sg5
g6
(g10
S'\x8d1x\r\x8f\xba\xe7?'
p262
tp263
Rp264
sg16
F0.75
sg17
I0
sg18
g19
sg20
I2
sg21
I0
sa(dp265
g2
g237
sg4
F0.75
sg5
g6
(g10
S'\x15\x97{\xab\x9ad\xef?'
p266
tp267
Rp268
sg16
F0.75
sg17
I1
sg18
g19
sg20
I2
sg21
I0
sa(dp269
g2
g237
sg4
F0.75
sg5
g6
(g10
S'-\\\x85\x1b\xbb\x10\xed?'
p270
tp271
Rp272
sg16
F0.75
sg17
I2
sg18
g19
sg20
I2
sg21
I0
sa(dp273
g2
g237
sg4
F0.75
sg5
g6
(g10
S'\x00\x00\x00\x00\x00\x00\xe8?'
p274
tp275
Rp276
sg16
F0.75
sg17
I0
sg18
g19
sg20
I0
sg21
I1
sa(dp277
g2
g237
sg4
F0.75
sg5
g6
(g10
S'\x00\x00\x00\x00\x00\x00\xe8?'
p278
tp279
Rp280
sg16
F0.75
sg17
I1
sg18
g19
sg20
I0
sg21
I1
sa(dp281
g2
g237
sg4
F0.75
sg5
g6
(g10
S'\x00\x00\x00\x00\x00\x00\xe8?'
p282
tp283
Rp284
sg16
F0.75
sg17
I2
sg18
g19
sg20
I0
sg21
I1
sa(dp285
g2
g237
sg4
F0.75
sg5
g6
(g10
S'\x15\x97{\xab\x9ad\xef?'
p286
tp287
Rp288
sg16
F0.75
sg17
I0
sg18
g19
sg20
I1
sg21
I1
sa(dp289
g2
g237
sg4
F0.75
sg5
g6
(g10
S'\x15\x97{\xab\x9ad\xef?'
p290
tp291
Rp292
sg16
F0.75
sg17
I1
sg18
g19
sg20
I1
sg21
I1
sa(dp293
g2
g237
sg4
F0.75
sg5
g6
(g10
S'\x15\x97{\xab\x9ad\xef?'
p294
tp295
Rp296
sg16
F0.75
sg17
I2
sg18
g19
sg20
I1
sg21
I1
sa(dp297
g2
g237
sg4
F0.75
sg5
g6
(g10
S'\x15\x97{\xab\x9ad\xef?'
p298
tp299
Rp300
sg16
F0.75
sg17
I0
sg18
g19
sg20
I2
sg21
I1
sa(dp301
g2
g237
sg4
F0.75
sg5
g6
(g10
S'\x8d1x\r\x8f\xba\xe7?'
p302
tp303
Rp304
sg16
F0.75
sg17
I1
sg18
g19
sg20
I2
sg21
I1
sa(dp305
g2
g237
sg4
F0.75
sg5
g6
(g10
S'\x15\x97{\xab\x9ad\xef?'
p306
tp307
Rp308
sg16
F0.75
sg17
I2
sg18
g19
sg20
I2
sg21
I1
sa(dp309
g2
S'Only B defects'
p310
sg4
F0.75
sg5
g6
(g10
S'\x00\x00\x00\x00\x00\x00\xe8?'
p311
tp312
Rp313
sg16
F0.75
sg17
I0
sg18
g19
sg20
I0
sg21
I0
sa(dp314
g2
g310
sg4
F0.75
sg5
g6
(g10
S'\x00\x00\x00\x00\x00\x00\xe8?'
p315
tp316
Rp317
sg16
F0.75
sg17
I1
sg18
g19
sg20
I0
sg21
I0
sa(dp318
g2
g310
sg4
F0.75
sg5
g6
(g10
S'\x00\x00\x00\x00\x00\x00\xe8?'
p319
tp320
Rp321
sg16
F0.75
sg17
I2
sg18
g19
sg20
I0
sg21
I0
sa(dp322
g2
g310
sg4
F0.75
sg5
g6
(g10
S'\x00\x00\x00\x00\x00\x00\xe8?'
p323
tp324
Rp325
sg16
F0.75
sg17
I0
sg18
g19
sg20
I1
sg21
I0
sa(dp326
g2
g310
sg4
F0.75
sg5
g6
(g10
S'\xe7\xd3t\x8aPZ\xd7?'
p327
tp328
Rp329
sg16
F0.75
sg17
I1
sg18
g19
sg20
I1
sg21
I0
sa(dp330
g2
g310
sg4
F0.75
sg5
g6
(g10
S'\x00\x00\x00\x00\x00\x00\xe8?'
p331
tp332
Rp333
sg16
F0.75
sg17
I2
sg18
g19
sg20
I1
sg21
I0
sa(dp334
g2
g310
sg4
F0.75
sg5
g6
(g10
S'\x00\x00\x00\x00\x00\x00\xe8?'
p335
tp336
Rp337
sg16
F0.75
sg17
I0
sg18
g19
sg20
I0
sg21
I1
sa(dp338
g2
g310
sg4
F0.75
sg5
g6
(g10
S'\x00\x00\x00\x00\x00\x00\xe8?'
p339
tp340
Rp341
sg16
F0.75
sg17
I1
sg18
g19
sg20
I0
sg21
I1
sa(dp342
g2
g310
sg4
F0.75
sg5
g6
(g10
S'\x00\x00\x00\x00\x00\x00\xe8?'
p343
tp344
Rp345
sg16
F0.75
sg17
I2
sg18
g19
sg20
I0
sg21
I1
sa(dp346
g2
g310
sg4
F0.75
sg5
g6
(g10
S'\xe7\xd3t\x8aPZ\xd7?'
p347
tp348
Rp349
sg16
F0.75
sg17
I0
sg18
g19
sg20
I1
sg21
I1
sa(dp350
g2
g310
sg4
F0.75
sg5
g6
(g10
S'\x00\x00\x00\x00\x00\x00\xe8?'
p351
tp352
Rp353
sg16
F0.75
sg17
I1
sg18
g19
sg20
I1
sg21
I1
sa(dp354
g2
g310
sg4
F0.75
sg5
g6
(g10
S'\xe7\xd3t\x8aPZ\xd7?'
p355
tp356
Rp357
sg16
F0.75
sg17
I2
sg18
g19
sg20
I1
sg21
I1
sa.