(lp0
(dp1
S'case'
p2
S'A defects then B defects'
p3
sS'CBA'
p4
F0.75
sS'belief'
p5
cnumpy.core.multiarray
scalar
p6
(cnumpy
dtype
p7
(S'f8'
p8
I0
I1
tp9
Rp10
(I3
S'<'
p11
NNNI-1
I-1
I0
tp12
bS'\x00\x00\x00\x00\x00\x00\xe8?'
p13
tp14
Rp15
sS'CAB'
p16
F0.75
sS'k'
p17
I0
sS'type'
p18
S'RA'
p19
sS'round'
p20
I0
sS'believer'
p21
I0
sa(dp22
g2
g3
sg4
F0.75
sg5
g6
(g10
S'\xe7\xd3t\x8aPZ\xd7?'
p23
tp24
Rp25
sg16
F0.75
sg17
I0
sg18
g19
sg20
I1
sg21
I0
sa(dp26
g2
g3
sg4
F0.75
sg5
g6
(g10
S'\xe7\xd3t\x8aPZ\xd7?'
p27
tp28
Rp29
sg16
F0.75
sg17
I0
sg18
g19
sg20
I2
sg21
I0
sa(dp30
g2
g3
sg4
F0.75
sg5
g6
(g10
S'\x00\x00\x00\x00\x00\x00\xe8?'
p31
tp32
Rp33
sg16
F0.75
sg17
I0
sg18
g19
sg20
I0
sg21
I1
sa(dp34
g2
g3
sg4
F0.75
sg5
g6
(g10
S'\x00\x00\x00\x00\x00\x00\xe8?'
p35
tp36
Rp37
sg16
F0.75
sg17
I0
sg18
g19
sg20
I1
sg21
I1
sa(dp38
g2
g3
sg4
F0.75
sg5
g6
(g10
S'\xe7\xd3t\x8aPZ\xd7?'
p39
tp40
Rp41
sg16
F0.75
sg17
I0
sg18
g19
sg20
I2
sg21
I1
sa(dp42
g2
S'Forgiveness'
p43
sg4
F0.75
sg5
g6
(g10
S'\x00\x00\x00\x00\x00\x00\xe8?'
p44
tp45
Rp46
sg16
F0.75
sg17
I0
sg18
g19
sg20
I0
sg21
I0
sa(dp47
g2
g43
sg4
F0.75
sg5
g6
(g10
S'\xe7\xd3t\x8aPZ\xd7?'
p48
tp49
Rp50
sg16
F0.75
sg17
I0
sg18
g19
sg20
I1
sg21
I0
sa(dp51
g2
g43
sg4
F0.75
sg5
g6
(g10
S'\xe7\xd3t\x8aPZ\xd7?'
p52
tp53
Rp54
sg16
F0.75
sg17
I0
sg18
g19
sg20
I2
sg21
I0
sa(dp55
g2
g43
sg4
F0.75
sg5
g6
(g10
S'\x00\x00\x00\x00\x00\x00\xe8?'
p56
tp57
Rp58
sg16
F0.75
sg17
I0
sg18
g19
sg20
I0
sg21
I1
sa(dp59
g2
g43
sg4
F0.75
sg5
g6
(g10
S'\x00\x00\x00\x00\x00\x00\xe8?'
p60
tp61
Rp62
sg16
F0.75
sg17
I0
sg18
g19
sg20
I1
sg21
I1
sa(dp63
g2
g43
sg4
F0.75
sg5
g6
(g10
S'\x15\x97{\xab\x9ad\xef?'
p64
tp65
Rp66
sg16
F0.75
sg17
I0
sg18
g19
sg20
I2
sg21
I1
sa(dp67
g2
S'CD'
p68
sg4
F0.75
sg5
g6
(g10
S'\x00\x00\x00\x00\x00\x00\xe8?'
p69
tp70
Rp71
sg16
F0.75
sg17
I0
sg18
g19
sg20
I0
sg21
I0
sa(dp72
g2
g68
sg4
F0.75
sg5
g6
(g10
S'\xe7\xd3t\x8aPZ\xd7?'
p73
tp74
Rp75
sg16
F0.75
sg17
I0
sg18
g19
sg20
I1
sg21
I0
sa(dp76
g2
g68
sg4
F0.75
sg5
g6
(g10
S'-\\\x85\x1b\xbb\x10\xed?'
p77
tp78
Rp79
sg16
F0.75
sg17
I0
sg18
g19
sg20
I2
sg21
I0
sa(dp80
g2
g68
sg4
F0.75
sg5
g6
(g10
S'\x00\x00\x00\x00\x00\x00\xe8?'
p81
tp82
Rp83
sg16
F0.75
sg17
I0
sg18
g19
sg20
I0
sg21
I1
sa(dp84
g2
g68
sg4
F0.75
sg5
g6
(g10
S'\x15\x97{\xab\x9ad\xef?'
p85
tp86
Rp87
sg16
F0.75
sg17
I0
sg18
g19
sg20
I1
sg21
I1
sa(dp88
g2
g68
sg4
F0.75
sg5
g6
(g10
S'\x15\x97{\xab\x9ad\xef?'
p89
tp90
Rp91
sg16
F0.75
sg17
I0
sg18
g19
sg20
I2
sg21
I1
sa(dp92
g2
S'DC'
p93
sg4
F0.75
sg5
g6
(g10
S'\x00\x00\x00\x00\x00\x00\xe8?'
p94
tp95
Rp96
sg16
F0.75
sg17
I0
sg18
g19
sg20
I0
sg21
I0
sa(dp97
g2
g93
sg4
F0.75
sg5
g6
(g10
S'\x15\x97{\xab\x9ad\xef?'
p98
tp99
Rp100
sg16
F0.75
sg17
I0
sg18
g19
sg20
I1
sg21
I0
sa(dp101
g2
g93
sg4
F0.75
sg5
g6
(g10
S'-\\\x85\x1b\xbb\x10\xed?'
p102
tp103
Rp104
sg16
F0.75
sg17
I0
sg18
g19
sg20
I2
sg21
I0
sa(dp105
g2
g93
sg4
F0.75
sg5
g6
(g10
S'\x00\x00\x00\x00\x00\x00\xe8?'
p106
tp107
Rp108
sg16
F0.75
sg17
I0
sg18
g19
sg20
I0
sg21
I1
sa(dp109
g2
g93
sg4
F0.75
sg5
g6
(g10
S'\x15\x97{\xab\x9ad\xef?'
p110
tp111
Rp112
sg16
F0.75
sg17
I0
sg18
g19
sg20
I1
sg21
I1
sa(dp113
g2
g93
sg4
F0.75
sg5
g6
(g10
S'\x15\x97{\xab\x9ad\xef?'
p114
tp115
Rp116
sg16
F0.75
sg17
I0
sg18
g19
sg20
I2
sg21
I1
sa(dp117
g2
S'Only B defects'
p118
sg4
F0.75
sg5
g6
(g10
S'\x00\x00\x00\x00\x00\x00\xe8?'
p119
tp120
Rp121
sg16
F0.75
sg17
I0
sg18
g19
sg20
I0
sg21
I0
sa(dp122
g2
g118
sg4
F0.75
sg5
g6
(g10
S'\x00\x00\x00\x00\x00\x00\xe8?'
p123
tp124
Rp125
sg16
F0.75
sg17
I0
sg18
g19
sg20
I1
sg21
I0
sa(dp126
g2
g118
sg4
F0.75
sg5
g6
(g10
S'\x00\x00\x00\x00\x00\x00\xe8?'
p127
tp128
Rp129
sg16
F0.75
sg17
I0
sg18
g19
sg20
I0
sg21
I1
sa(dp130
g2
g118
sg4
F0.75
sg5
g6
(g10
S'\xe7\xd3t\x8aPZ\xd7?'
p131
tp132
Rp133
sg16
F0.75
sg17
I0
sg18
g19
sg20
I1
sg21
I1
sa.