(lp0
(dp1
S'CAB'
p2
F0.75
sS'CBA'
p3
F0.75
sS'Agent'
p4
S'Agent A'
p5
sS'Condition'
p6
S'A defects then B defects'
p7
sS'Final Belief'
p8
cnumpy.core.multiarray
scalar
p9
(cnumpy
dtype
p10
(S'f8'
p11
I0
I1
tp12
Rp13
(I3
S'<'
p14
NNNI-1
I-1
I0
tp15
bS'\xe7\xd3t\x8aPZ\xd7?'
p16
tp17
Rp18
sa(dp19
g2
F0.75
sg3
F0.75
sg4
S'Agent B'
p20
sg6
g7
sg8
g9
(g13
S'\xe7\xd3t\x8aPZ\xd7?'
p21
tp22
Rp23
sa(dp24
g2
F0.75
sg3
F0.75
sg4
g5
sg6
g7
sg8
g9
(g13
S'\xe7\xd3t\x8aPZ\xd7?'
p25
tp26
Rp27
sa(dp28
g2
F0.75
sg3
F0.75
sg4
g20
sg6
g7
sg8
g9
(g13
S'\xe7\xd3t\x8aPZ\xd7?'
p29
tp30
Rp31
sa(dp32
g2
F0.75
sg3
F0.75
sg4
g5
sg6
g7
sg8
g9
(g13
S'\xe7\xd3t\x8aPZ\xd7?'
p33
tp34
Rp35
sa(dp36
g2
F0.75
sg3
F0.75
sg4
g20
sg6
g7
sg8
g9
(g13
S'\xe7\xd3t\x8aPZ\xd7?'
p37
tp38
Rp39
sa(dp40
g2
F0.75
sg3
F0.75
sg4
g5
sg6
S'Forgiveness'
p41
sg8
g9
(g13
S'\xe7\xd3t\x8aPZ\xd7?'
p42
tp43
Rp44
sa(dp45
g2
F0.75
sg3
F0.75
sg4
g20
sg6
g41
sg8
g9
(g13
S'\x15\x97{\xab\x9ad\xef?'
p46
tp47
Rp48
sa(dp49
g2
F0.75
sg3
F0.75
sg4
g5
sg6
g41
sg8
g9
(g13
S'\xe7\xd3t\x8aPZ\xd7?'
p50
tp51
Rp52
sa(dp53
g2
F0.75
sg3
F0.75
sg4
g20
sg6
g41
sg8
g9
(g13
S'\x15\x97{\xab\x9ad\xef?'
p54
tp55
Rp56
sa(dp57
g2
F0.75
sg3
F0.75
sg4
g5
sg6
g41
sg8
g9
(g13
S'\xe7\xd3t\x8aPZ\xd7?'
p58
tp59
Rp60
sa(dp61
g2
F0.75
sg3
F0.75
sg4
g20
sg6
g41
sg8
g9
(g13
S'\x15\x97{\xab\x9ad\xef?'
p62
tp63
Rp64
sa(dp65
g2
F0.75
sg3
F0.75
sg4
g5
sg6
S'CD'
p66
sg8
g9
(g13
S'-\\\x85\x1b\xbb\x10\xed?'
p67
tp68
Rp69
sa(dp70
g2
F0.75
sg3
F0.75
sg4
g20
sg6
g66
sg8
g9
(g13
S'\x15\x97{\xab\x9ad\xef?'
p71
tp72
Rp73
sa(dp74
g2
F0.75
sg3
F0.75
sg4
g5
sg6
g66
sg8
g9
(g13
S'-\\\x85\x1b\xbb\x10\xed?'
p75
tp76
Rp77
sa(dp78
g2
F0.75
sg3
F0.75
sg4
g20
sg6
g66
sg8
g9
(g13
S'\x15\x97{\xab\x9ad\xef?'
p79
tp80
Rp81
sa(dp82
g2
F0.75
sg3
F0.75
sg4
g5
sg6
g66
sg8
g9
(g13
S'-\\\x85\x1b\xbb\x10\xed?'
p83
tp84
Rp85
sa(dp86
g2
F0.75
sg3
F0.75
sg4
g20
sg6
g66
sg8
g9
(g13
S'\x15\x97{\xab\x9ad\xef?'
p87
tp88
Rp89
sa(dp90
g2
F0.75
sg3
F0.75
sg4
g5
sg6
S'DC'
p91
sg8
g9
(g13
S'-\\\x85\x1b\xbb\x10\xed?'
p92
tp93
Rp94
sa(dp95
g2
F0.75
sg3
F0.75
sg4
g20
sg6
g91
sg8
g9
(g13
S'\x15\x97{\xab\x9ad\xef?'
p96
tp97
Rp98
sa(dp99
g2
F0.75
sg3
F0.75
sg4
g5
sg6
g91
sg8
g9
(g13
S'-\\\x85\x1b\xbb\x10\xed?'
p100
tp101
Rp102
sa(dp103
g2
F0.75
sg3
F0.75
sg4
g20
sg6
g91
sg8
g9
(g13
S'\x15\x97{\xab\x9ad\xef?'
p104
tp105
Rp106
sa(dp107
g2
F0.75
sg3
F0.75
sg4
g5
sg6
g91
sg8
g9
(g13
S'-\\\x85\x1b\xbb\x10\xed?'
p108
tp109
Rp110
sa(dp111
g2
F0.75
sg3
F0.75
sg4
g20
sg6
g91
sg8
g9
(g13
S'\x15\x97{\xab\x9ad\xef?'
p112
tp113
Rp114
sa(dp115
g2
F0.75
sg3
F0.75
sg4
g5
sg6
S'Only B defects'
p116
sg8
g9
(g13
S'\x00\x00\x00\x00\x00\x00\xe8?'
p117
tp118
Rp119
sa(dp120
g2
F0.75
sg3
F0.75
sg4
g20
sg6
g116
sg8
g9
(g13
S'\xe7\xd3t\x8aPZ\xd7?'
p121
tp122
Rp123
sa(dp124
g2
F0.75
sg3
F0.75
sg4
g5
sg6
g116
sg8
g9
(g13
S'\x00\x00\x00\x00\x00\x00\xe8?'
p125
tp126
Rp127
sa(dp128
g2
F0.75
sg3
F0.75
sg4
g20
sg6
g116
sg8
g9
(g13
S'\xe7\xd3t\x8aPZ\xd7?'
p129
tp130
Rp131
sa.