(lp0
((F0.75
F0.75
F0.75
S'A defects then B defects'
p1
tp2
(lp3
(dp4
S'case'
p5
g1
sS'proir'
p6
F0.75
sS'CBA'
p7
F0.75
sS'observer'
p8
ccopy_reg
_reconstructor
p9
(cindirect_reciprocity
RationalAgent
p10
c__builtin__
object
p11
Ntp12
Rp13
(dp14
S'belief'
p15
g9
(cindirect_reciprocity
constantdefaultdict
p16
c__builtin__
dict
p17
(dp18
tp19
Rp20
(dp21
S'val'
p22
cnumpy.core.multiarray
_reconstruct
p23
(cnumpy
ndarray
p24
(I0
tp25
S'b'
p26
tp27
Rp28
(I1
(I2
tp29
cnumpy
dtype
p30
(S'f8'
p31
I0
I1
tp32
Rp33
(I3
S'<'
p34
NNNI-1
I-1
I0
tp35
bI00
S'\x00\x00\x00\x00\x00\x00\xe8?\x00\x00\x00\x00\x00\x00\xd0?'
p36
tp37
bsbsS'beta'
p38
I3
sS'uniform_likelihood'
p39
g23
(g24
(I0
tp40
g26
tp41
Rp42
(I1
(I2
tp43
g33
I00
S'\x00\x00\x00\x00\x00\x00\xe0?\x00\x00\x00\x00\x00\x00\xe0?'
p44
tp45
bsS'world_id'
p46
S'O'
p47
sS'genome'
p48
(dp49
S'RA_K'
p50
I0
sS'agent_types'
p51
(lp52
cindirect_reciprocity
ReciprocalAgent
p53
acindirect_reciprocity
SelfishAgent
p54
asS'type'
p55
g10
sS'RA_prior'
p56
F0.75
sS'prior'
p57
g23
(g24
(I0
tp58
g26
tp59
Rp60
(I1
(I2
tp61
g33
I00
S'\x00\x00\x00\x00\x00\x00\xe8?\x00\x00\x00\x00\x00\x00\xd0?'
p62
tp63
bsg38
I3
sS'prior_precision'
p64
I0
sS'tremble'
p65
F0.0
ssS'model'
p66
g9
(cindirect_reciprocity
AgentDict
p67
g17
(dp68
I0
g9
(cindirect_reciprocity
TypeDict
p69
g17
(dp70
g53
g9
(g53
g11
Ntp71
Rp72
(dp73
g15
g9
(g16
g17
(dp74
I1
g23
(g24
(I0
tp75
g26
tp76
Rp77
(I1
(I2
tp78
g33
I00
S'\x00\x00\x00\x00\x00\x00\xe8?\x00\x00\x00\x00\x00\x00\xd0?'
p79
tp80
bstp81
Rp82
(dp83
g22
g23
(g24
(I0
tp84
g26
tp85
Rp86
(I1
(I2
tp87
g33
I00
S'\x00\x00\x00\x00\x00\x00\xe8?\x00\x00\x00\x00\x00\x00\xd0?'
p88
tp89
bsbsS'ingroup_indices'
p90
g23
(g24
(I0
tp91
g26
tp92
Rp93
(I1
(I1
tp94
g30
(S'i8'
p95
I0
I1
tp96
Rp97
(I3
S'<'
p98
NNNI-1
I-1
I0
tp99
bI00
S'\x00\x00\x00\x00\x00\x00\x00\x00'
p100
tp101
bsg38
I3
sg39
g23
(g24
(I0
tp102
g26
tp103
Rp104
(I1
(I2
tp105
g33
I00
S'\x00\x00\x00\x00\x00\x00\xe0?\x00\x00\x00\x00\x00\x00\xe0?'
p106
tp107
bsg46
I0
sg48
(dp108
g50
I0
sg51
(lp109
g53
ag54
asg55
g10
sg56
F0.75
sg57
g23
(g24
(I0
tp110
g26
tp111
Rp112
(I1
(I2
tp113
g33
I00
S'\x00\x00\x00\x00\x00\x00\xe8?\x00\x00\x00\x00\x00\x00\xd0?'
p114
tp115
bsg38
I3
sg64
I0
sg65
F0.0
ssg66
g9
(g67
g17
(dp116
tp117
Rp118
(dp119
g48
(dp120
g50
I0
sg51
(lp121
g53
ag54
asg65
F0.0
sg56
F0.75
sg57
g23
(g24
(I0
tp122
g26
tp123
Rp124
(I1
(I2
tp125
g33
I00
S'\x00\x00\x00\x00\x00\x00\xe8?\x00\x00\x00\x00\x00\x00\xd0?'
p126
tp127
bsg38
I3
sg64
I0
sg55
g10
ssbsS'likelihood'
p128
g9
(g16
g17
(dp129
tp130
Rp131
(dp132
g22
g23
(g24
(I0
tp133
g26
tp134
Rp135
(I1
(I2
tp136
g33
I00
S'\x00\x00\x00\x00\x00\x00\xe0?\x00\x00\x00\x00\x00\x00\xe0?'
p137
tp138
bsbsS'_type_to_index'
p139
(dp140
g54
I1
sg53
I0
ssS'pop_prior'
p141
g23
(g24
(I0
tp142
g26
tp143
Rp144
(I1
(I2
tp145
g33
I00
S'\x00\x00\x00\x00\x00\x00\xe8?\x00\x00\x00\x00\x00\x00\xd0?'
p146
tp147
bsbsg54
g9
(g54
g11
Ntp148
Rp149
(dp150
g128
(dp151
sg38
I3
sg46
I0
sg48
(dp152
g50
I0
sg51
(lp153
g53
ag54
asg55
g10
sg56
F0.75
sg57
g23
(g24
(I0
tp154
g26
tp155
Rp156
(I1
(I2
tp157
g33
I00
S'\x00\x00\x00\x00\x00\x00\xe8?\x00\x00\x00\x00\x00\x00\xd0?'
p158
tp159
bsg38
I3
sg64
I0
sg65
F0.0
ssg15
(dp160
sbstp161
Rp162
(dp163
g128
g131
sg15
g82
sS'agent'
p164
g9
(g10
g11
Ntp165
Rp166
(dp167
g15
g82
sg38
I3
sg39
g23
(g24
(I0
tp168
g26
tp169
Rp170
(I1
(I2
tp171
g33
I00
S'\x00\x00\x00\x00\x00\x00\xe0?\x00\x00\x00\x00\x00\x00\xe0?'
p172
tp173
bsg46
I0
sg48
(dp174
g50
I0
sg51
(lp175
g53
ag54
asg55
g10
sg56
F0.75
sg57
g23
(g24
(I0
tp176
g26
tp177
Rp178
(I1
(I2
tp179
g33
I00
S'\x00\x00\x00\x00\x00\x00\xe8?\x00\x00\x00\x00\x00\x00\xd0?'
p180
tp181
bsg38
I3
sg64
I0
sg65
F0.0
ssg66
g9
(g67
g17
(dp182
tp183
Rp184
(dp185
g48
g120
sbsg128
g131
sg139
(dp186
g54
I1
sg53
I0
ssg141
g86
sbsbsI1
g9
(g69
g17
(dp187
g53
g9
(g53
g11
Ntp188
Rp189
(dp190
g15
g9
(g16
g17
(dp191
I0
g23
(g24
(I0
tp192
g26
tp193
Rp194
(I1
(I2
tp195
g33
I00
S'\x00\x00\x00\x00\x00\x00\xe8?\x00\x00\x00\x00\x00\x00\xd0?'
p196
tp197
bstp198
Rp199
(dp200
g22
g23
(g24
(I0
tp201
g26
tp202
Rp203
(I1
(I2
tp204
g33
I00
S'\x00\x00\x00\x00\x00\x00\xe8?\x00\x00\x00\x00\x00\x00\xd0?'
p205
tp206
bsbsg90
g23
(g24
(I0
tp207
g26
tp208
Rp209
(I1
(I1
tp210
g97
I00
S'\x00\x00\x00\x00\x00\x00\x00\x00'
p211
tp212
bsg38
I3
sg39
g23
(g24
(I0
tp213
g26
tp214
Rp215
(I1
(I2
tp216
g33
I00
S'\x00\x00\x00\x00\x00\x00\xe0?\x00\x00\x00\x00\x00\x00\xe0?'
p217
tp218
bsg46
I1
sg48
(dp219
g50
I0
sg51
(lp220
g53
ag54
asg55
g10
sg56
F0.75
sg57
g23
(g24
(I0
tp221
g26
tp222
Rp223
(I1
(I2
tp224
g33
I00
S'\x00\x00\x00\x00\x00\x00\xe8?\x00\x00\x00\x00\x00\x00\xd0?'
p225
tp226
bsg38
I3
sg64
I0
sg65
F0.0
ssg66
g9
(g67
g17
(dp227
tp228
Rp229
(dp230
g48
g120
sbsg128
g9
(g16
g17
(dp231
tp232
Rp233
(dp234
g22
g23
(g24
(I0
tp235
g26
tp236
Rp237
(I1
(I2
tp238
g33
I00
S'\x00\x00\x00\x00\x00\x00\xe0?\x00\x00\x00\x00\x00\x00\xe0?'
p239
tp240
bsbsg139
(dp241
g54
I1
sg53
I0
ssg141
g23
(g24
(I0
tp242
g26
tp243
Rp244
(I1
(I2
tp245
g33
I00
S'\x00\x00\x00\x00\x00\x00\xe8?\x00\x00\x00\x00\x00\x00\xd0?'
p246
tp247
bsbsg54
g9
(g54
g11
Ntp248
Rp249
(dp250
g128
(dp251
sg38
I3
sg46
I1
sg48
(dp252
g50
I0
sg51
(lp253
g53
ag54
asg55
g10
sg56
F0.75
sg57
g23
(g24
(I0
tp254
g26
tp255
Rp256
(I1
(I2
tp257
g33
I00
S'\x00\x00\x00\x00\x00\x00\xe8?\x00\x00\x00\x00\x00\x00\xd0?'
p258
tp259
bsg38
I3
sg64
I0
sg65
F0.0
ssg15
(dp260
sbstp261
Rp262
(dp263
g128
g233
sg15
g199
sg164
g9
(g10
g11
Ntp264
Rp265
(dp266
g15
g199
sg38
I3
sg39
g23
(g24
(I0
tp267
g26
tp268
Rp269
(I1
(I2
tp270
g33
I00
S'\x00\x00\x00\x00\x00\x00\xe0?\x00\x00\x00\x00\x00\x00\xe0?'
p271
tp272
bsg46
I1
sg48
(dp273
g50
I0
sg51
(lp274
g53
ag54
asg55
g10
sg56
F0.75
sg57
g23
(g24
(I0
tp275
g26
tp276
Rp277
(I1
(I2
tp278
g33
I00
S'\x00\x00\x00\x00\x00\x00\xe8?\x00\x00\x00\x00\x00\x00\xd0?'
p279
tp280
bsg38
I3
sg64
I0
sg65
F0.0
ssg66
g9
(g67
g17
(dp281
tp282
Rp283
(dp284
g48
g120
sbsg128
g233
sg139
(dp285
g54
I1
sg53
I0
ssg141
g203
sbsbstp286
Rp287
(dp288
g48
g120
sbsg128
g9
(g16
g17
(dp289
tp290
Rp291
(dp292
g22
g23
(g24
(I0
tp293
g26
tp294
Rp295
(I1
(I2
tp296
g33
I00
S'\x00\x00\x00\x00\x00\x00\xe0?\x00\x00\x00\x00\x00\x00\xe0?'
p297
tp298
bsbsg139
(dp299
g54
I1
sg53
I0
ssg141
g28
sbsS'CAB'
p300
F0.75
sS'round'
p301
I0
sa(dp302
g5
g1
sg7
F0.75
sg8
g9
(g10
g11
Ntp303
Rp304
(dp305
g15
g9
(g16
g17
(dp306
I0
g23
(g24
(I0
tp307
g26
tp308
Rp309
(I1
(I2
tp310
g33
I00
S'\xe7\xd3t\x8aPZ\xd7?\x0c\x96\xc5\xba\xd7R\xe4?'
p311
tp312
bsI1
g23
(g24
(I0
tp313
g26
tp314
Rp315
(I1
(I2
tp316
g33
I00
S'\x00\x00\x00\x00\x00\x00\xe8?\x00\x00\x00\x00\x00\x00\xd0?'
p317
tp318
bstp319
Rp320
(dp321
g22
g23
(g24
(I0
tp322
g26
tp323
Rp324
(I1
(I2
tp325
g33
I00
S'\x00\x00\x00\x00\x00\x00\xe8?\x00\x00\x00\x00\x00\x00\xd0?'
p326
tp327
bsbsg38
I3
sg39
g23
(g24
(I0
tp328
g26
tp329
Rp330
(I1
(I2
tp331
g33
I00
S'\x00\x00\x00\x00\x00\x00\xe0?\x00\x00\x00\x00\x00\x00\xe0?'
p332
tp333
bsg46
g47
sg48
(dp334
g50
I0
sg51
(lp335
g53
ag54
asg55
g10
sg56
F0.75
sg57
g23
(g24
(I0
tp336
g26
tp337
Rp338
(I1
(I2
tp339
g33
I00
S'\x00\x00\x00\x00\x00\x00\xe8?\x00\x00\x00\x00\x00\x00\xd0?'
p340
tp341
bsg38
I3
sg64
I0
sg65
F0.0
ssg66
g9
(g67
g17
(dp342
I0
g9
(g69
g17
(dp343
g53
g9
(g53
g11
Ntp344
Rp345
(dp346
g15
g9
(g16
g17
(dp347
I1
g23
(g24
(I0
tp348
g26
tp349
Rp350
(I1
(I2
tp351
g33
I00
S'\x00\x00\x00\x00\x00\x00\xe8?\x00\x00\x00\x00\x00\x00\xd0?'
p352
tp353
bstp354
Rp355
(dp356
g22
g23
(g24
(I0
tp357
g26
tp358
Rp359
(I1
(I2
tp360
g33
I00
S'\x00\x00\x00\x00\x00\x00\xe8?\x00\x00\x00\x00\x00\x00\xd0?'
p361
tp362
bsbsg90
g23
(g24
(I0
tp363
g26
tp364
Rp365
(I1
(I1
tp366
g97
I00
S'\x00\x00\x00\x00\x00\x00\x00\x00'
p367
tp368
bsg38
I3
sg39
g23
(g24
(I0
tp369
g26
tp370
Rp371
(I1
(I2
tp372
g33
I00
S'\x00\x00\x00\x00\x00\x00\xe0?\x00\x00\x00\x00\x00\x00\xe0?'
p373
tp374
bsg46
I0
sg48
(dp375
g50
I0
sg51
(lp376
g53
ag54
asg55
g10
sg56
F0.75
sg57
g23
(g24
(I0
tp377
g26
tp378
Rp379
(I1
(I2
tp380
g33
I00
S'\x00\x00\x00\x00\x00\x00\xe8?\x00\x00\x00\x00\x00\x00\xd0?'
p381
tp382
bsg38
I3
sg64
I0
sg65
F0.0
ssg66
g9
(g67
g17
(dp383
tp384
Rp385
(dp386
g48
(dp387
g50
I0
sg51
(lp388
g53
ag54
asg65
F0.0
sg56
F0.75
sg57
g23
(g24
(I0
tp389
g26
tp390
Rp391
(I1
(I2
tp392
g33
I00
S'\x00\x00\x00\x00\x00\x00\xe8?\x00\x00\x00\x00\x00\x00\xd0?'
p393
tp394
bsg38
I3
sg64
I0
sg55
g10
ssbsg128
g9
(g16
g17
(dp395
tp396
Rp397
(dp398
g22
g23
(g24
(I0
tp399
g26
tp400
Rp401
(I1
(I2
tp402
g33
I00
S'\x00\x00\x00\x00\x00\x00\xe0?\x00\x00\x00\x00\x00\x00\xe0?'
p403
tp404
bsbsg139
(dp405
g54
I1
sg53
I0
ssg141
g23
(g24
(I0
tp406
g26
tp407
Rp408
(I1
(I2
tp409
g33
I00
S'\x00\x00\x00\x00\x00\x00\xe8?\x00\x00\x00\x00\x00\x00\xd0?'
p410
tp411
bsbsg54
g9
(g54
g11
Ntp412
Rp413
(dp414
g128
(dp415
sg38
I3
sg46
I0
sg48
(dp416
g50
I0
sg51
(lp417
g53
ag54
asg55
g10
sg56
F0.75
sg57
g23
(g24
(I0
tp418
g26
tp419
Rp420
(I1
(I2
tp421
g33
I00
S'\x00\x00\x00\x00\x00\x00\xe8?\x00\x00\x00\x00\x00\x00\xd0?'
p422
tp423
bsg38
I3
sg64
I0
sg65
F0.0
ssg15
(dp424
sbstp425
Rp426
(dp427
g128
g397
sg15
g355
sg164
g9
(g10
g11
Ntp428
Rp429
(dp430
g15
g355
sg38
I3
sg39
g23
(g24
(I0
tp431
g26
tp432
Rp433
(I1
(I2
tp434
g33
I00
S'\x00\x00\x00\x00\x00\x00\xe0?\x00\x00\x00\x00\x00\x00\xe0?'
p435
tp436
bsg46
I0
sg48
(dp437
g50
I0
sg51
(lp438
g53
ag54
asg55
g10
sg56
F0.75
sg57
g23
(g24
(I0
tp439
g26
tp440
Rp441
(I1
(I2
tp442
g33
I00
S'\x00\x00\x00\x00\x00\x00\xe8?\x00\x00\x00\x00\x00\x00\xd0?'
p443
tp444
bsg38
I3
sg64
I0
sg65
F0.0
ssg66
g9
(g67
g17
(dp445
tp446
Rp447
(dp448
g48
g387
sbsg128
g397
sg139
(dp449
g54
I1
sg53
I0
ssg141
g359
sbsbsI1
g9
(g69
g17
(dp450
g53
g9
(g53
g11
Ntp451
Rp452
(dp453
g15
g9
(g16
g17
(dp454
I0
g23
(g24
(I0
tp455
g26
tp456
Rp457
(I1
(I2
tp458
g33
I00
S'\x00\x00\x00\x00\x00\x00\xe8?\x00\x00\x00\x00\x00\x00\xd0?'
p459
tp460
bstp461
Rp462
(dp463
g22
g23
(g24
(I0
tp464
g26
tp465
Rp466
(I1
(I2
tp467
g33
I00
S'\x00\x00\x00\x00\x00\x00\xe8?\x00\x00\x00\x00\x00\x00\xd0?'
p468
tp469
bsbsg90
g23
(g24
(I0
tp470
g26
tp471
Rp472
(I1
(I1
tp473
g97
I00
S'\x00\x00\x00\x00\x00\x00\x00\x00'
p474
tp475
bsg38
I3
sg39
g23
(g24
(I0
tp476
g26
tp477
Rp478
(I1
(I2
tp479
g33
I00
S'\x00\x00\x00\x00\x00\x00\xe0?\x00\x00\x00\x00\x00\x00\xe0?'
p480
tp481
bsg46
I1
sg48
(dp482
g50
I0
sg51
(lp483
g53
ag54
asg55
g10
sg56
F0.75
sg57
g23
(g24
(I0
tp484
g26
tp485
Rp486
(I1
(I2
tp487
g33
I00
S'\x00\x00\x00\x00\x00\x00\xe8?\x00\x00\x00\x00\x00\x00\xd0?'
p488
tp489
bsg38
I3
sg64
I0
sg65
F0.0
ssg66
g9
(g67
g17
(dp490
tp491
Rp492
(dp493
g48
g387
sbsg128
g9
(g16
g17
(dp494
tp495
Rp496
(dp497
g22
g23
(g24
(I0
tp498
g26
tp499
Rp500
(I1
(I2
tp501
g33
I00
S'\x00\x00\x00\x00\x00\x00\xe0?\x00\x00\x00\x00\x00\x00\xe0?'
p502
tp503
bsbsg139
(dp504
g54
I1
sg53
I0
ssg141
g23
(g24
(I0
tp505
g26
tp506
Rp507
(I1
(I2
tp508
g33
I00
S'\x00\x00\x00\x00\x00\x00\xe8?\x00\x00\x00\x00\x00\x00\xd0?'
p509
tp510
bsbsg54
g9
(g54
g11
Ntp511
Rp512
(dp513
g128
(dp514
sg38
I3
sg46
I1
sg48
(dp515
g50
I0
sg51
(lp516
g53
ag54
asg55
g10
sg56
F0.75
sg57
g23
(g24
(I0
tp517
g26
tp518
Rp519
(I1
(I2
tp520
g33
I00
S'\x00\x00\x00\x00\x00\x00\xe8?\x00\x00\x00\x00\x00\x00\xd0?'
p521
tp522
bsg38
I3
sg64
I0
sg65
F0.0
ssg15
(dp523
sbstp524
Rp525
(dp526
g128
g496
sg15
g462
sg164
g9
(g10
g11
Ntp527
Rp528
(dp529
g15
g462
sg38
I3
sg39
g23
(g24
(I0
tp530
g26
tp531
Rp532
(I1
(I2
tp533
g33
I00
S'\x00\x00\x00\x00\x00\x00\xe0?\x00\x00\x00\x00\x00\x00\xe0?'
p534
tp535
bsg46
I1
sg48
(dp536
g50
I0
sg51
(lp537
g53
ag54
asg55
g10
sg56
F0.75
sg57
g23
(g24
(I0
tp538
g26
tp539
Rp540
(I1
(I2
tp541
g33
I00
S'\x00\x00\x00\x00\x00\x00\xe8?\x00\x00\x00\x00\x00\x00\xd0?'
p542
tp543
bsg38
I3
sg64
I0
sg65
F0.0
ssg66
g9
(g67
g17
(dp544
tp545
Rp546
(dp547
g48
g387
sbsg128
g496
sg139
(dp548
g54
I1
sg53
I0
ssg141
g466
sbsbstp549
Rp550
(dp551
g48
g387
sbsg128
g9
(g16
g17
(dp552
I0
g23
(g24
(I0
tp553
g26
tp554
Rp555
(I1
(I2
tp556
g33
I00
S'\xff\xb4B\x03\xb7\x92\xc4?\xc1R/?R\xdb\xea?'
p557
tp558
bstp559
Rp560
(dp561
g22
g23
(g24
(I0
tp562
g26
tp563
Rp564
(I1
(I2
tp565
g33
I00
S'\x00\x00\x00\x00\x00\x00\xe0?\x00\x00\x00\x00\x00\x00\xe0?'
p566
tp567
bsbsg139
(dp568
g54
I1
sg53
I0
ssg141
g324
sbsg57
F0.75
sg300
F0.75
sg301
I1
sa(dp569
g5
g1
sg7
F0.75
sg8
g9
(g10
g11
Ntp570
Rp571
(dp572
g15
g9
(g16
g17
(dp573
I0
g23
(g24
(I0
tp574
g26
tp575
Rp576
(I1
(I2
tp577
g33
I00
S'\xe7\xd3t\x8aPZ\xd7?\x0c\x96\xc5\xba\xd7R\xe4?'
p578
tp579
bsI1
g23
(g24
(I0
tp580
g26
tp581
Rp582
(I1
(I2
tp583
g33
I00
S'\xe7\xd3t\x8aPZ\xd7?\x0c\x96\xc5\xba\xd7R\xe4?'
p584
tp585
bstp586
Rp587
(dp588
g22
g23
(g24
(I0
tp589
g26
tp590
Rp591
(I1
(I2
tp592
g33
I00
S'\x00\x00\x00\x00\x00\x00\xe8?\x00\x00\x00\x00\x00\x00\xd0?'
p593
tp594
bsbsg38
I3
sg39
g23
(g24
(I0
tp595
g26
tp596
Rp597
(I1
(I2
tp598
g33
I00
S'\x00\x00\x00\x00\x00\x00\xe0?\x00\x00\x00\x00\x00\x00\xe0?'
p599
tp600
bsg46
g47
sg48
(dp601
g50
I0
sg51
(lp602
g53
ag54
asg55
g10
sg56
F0.75
sg57
g23
(g24
(I0
tp603
g26
tp604
Rp605
(I1
(I2
tp606
g33
I00
S'\x00\x00\x00\x00\x00\x00\xe8?\x00\x00\x00\x00\x00\x00\xd0?'
p607
tp608
bsg38
I3
sg64
I0
sg65
F0.0
ssg66
g9
(g67
g17
(dp609
I0
g9
(g69
g17
(dp610
g53
g9
(g53
g11
Ntp611
Rp612
(dp613
g15
g9
(g16
g17
(dp614
I1
g23
(g24
(I0
tp615
g26
tp616
Rp617
(I1
(I2
tp618
g33
I00
S'\x00\x00\x00\x00\x00\x00\xe8?\x00\x00\x00\x00\x00\x00\xd0?'
p619
tp620
bstp621
Rp622
(dp623
g22
g23
(g24
(I0
tp624
g26
tp625
Rp626
(I1
(I2
tp627
g33
I00
S'\x00\x00\x00\x00\x00\x00\xe8?\x00\x00\x00\x00\x00\x00\xd0?'
p628
tp629
bsbsg90
g23
(g24
(I0
tp630
g26
tp631
Rp632
(I1
(I1
tp633
g97
I00
S'\x00\x00\x00\x00\x00\x00\x00\x00'
p634
tp635
bsg38
I3
sg39
g23
(g24
(I0
tp636
g26
tp637
Rp638
(I1
(I2
tp639
g33
I00
S'\x00\x00\x00\x00\x00\x00\xe0?\x00\x00\x00\x00\x00\x00\xe0?'
p640
tp641
bsg46
I0
sg48
(dp642
g50
I0
sg51
(lp643
g53
ag54
asg55
g10
sg56
F0.75
sg57
g23
(g24
(I0
tp644
g26
tp645
Rp646
(I1
(I2
tp647
g33
I00
S'\x00\x00\x00\x00\x00\x00\xe8?\x00\x00\x00\x00\x00\x00\xd0?'
p648
tp649
bsg38
I3
sg64
I0
sg65
F0.0
ssg66
g9
(g67
g17
(dp650
tp651
Rp652
(dp653
g48
(dp654
g50
I0
sg51
(lp655
g53
ag54
asg65
F0.0
sg56
F0.75
sg57
g23
(g24
(I0
tp656
g26
tp657
Rp658
(I1
(I2
tp659
g33
I00
S'\x00\x00\x00\x00\x00\x00\xe8?\x00\x00\x00\x00\x00\x00\xd0?'
p660
tp661
bsg38
I3
sg64
I0
sg55
g10
ssbsg128
g9
(g16
g17
(dp662
tp663
Rp664
(dp665
g22
g23
(g24
(I0
tp666
g26
tp667
Rp668
(I1
(I2
tp669
g33
I00
S'\x00\x00\x00\x00\x00\x00\xe0?\x00\x00\x00\x00\x00\x00\xe0?'
p670
tp671
bsbsg139
(dp672
g54
I1
sg53
I0
ssg141
g23
(g24
(I0
tp673
g26
tp674
Rp675
(I1
(I2
tp676
g33
I00
S'\x00\x00\x00\x00\x00\x00\xe8?\x00\x00\x00\x00\x00\x00\xd0?'
p677
tp678
bsbsg54
g9
(g54
g11
Ntp679
Rp680
(dp681
g128
(dp682
sg38
I3
sg46
I0
sg48
(dp683
g50
I0
sg51
(lp684
g53
ag54
asg55
g10
sg56
F0.75
sg57
g23
(g24
(I0
tp685
g26
tp686
Rp687
(I1
(I2
tp688
g33
I00
S'\x00\x00\x00\x00\x00\x00\xe8?\x00\x00\x00\x00\x00\x00\xd0?'
p689
tp690
bsg38
I3
sg64
I0
sg65
F0.0
ssg15
(dp691
sbstp692
Rp693
(dp694
g128
g664
sg15
g622
sg164
g9
(g10
g11
Ntp695
Rp696
(dp697
g15
g622
sg38
I3
sg39
g23
(g24
(I0
tp698
g26
tp699
Rp700
(I1
(I2
tp701
g33
I00
S'\x00\x00\x00\x00\x00\x00\xe0?\x00\x00\x00\x00\x00\x00\xe0?'
p702
tp703
bsg46
I0
sg48
(dp704
g50
I0
sg51
(lp705
g53
ag54
asg55
g10
sg56
F0.75
sg57
g23
(g24
(I0
tp706
g26
tp707
Rp708
(I1
(I2
tp709
g33
I00
S'\x00\x00\x00\x00\x00\x00\xe8?\x00\x00\x00\x00\x00\x00\xd0?'
p710
tp711
bsg38
I3
sg64
I0
sg65
F0.0
ssg66
g9
(g67
g17
(dp712
tp713
Rp714
(dp715
g48
g654
sbsg128
g664
sg139
(dp716
g54
I1
sg53
I0
ssg141
g626
sbsbsI1
g9
(g69
g17
(dp717
g53
g9
(g53
g11
Ntp718
Rp719
(dp720
g15
g9
(g16
g17
(dp721
I0
g23
(g24
(I0
tp722
g26
tp723
Rp724
(I1
(I2
tp725
g33
I00
S'\x00\x00\x00\x00\x00\x00\xe8?\x00\x00\x00\x00\x00\x00\xd0?'
p726
tp727
bstp728
Rp729
(dp730
g22
g23
(g24
(I0
tp731
g26
tp732
Rp733
(I1
(I2
tp734
g33
I00
S'\x00\x00\x00\x00\x00\x00\xe8?\x00\x00\x00\x00\x00\x00\xd0?'
p735
tp736
bsbsg90
g23
(g24
(I0
tp737
g26
tp738
Rp739
(I1
(I1
tp740
g97
I00
S'\x00\x00\x00\x00\x00\x00\x00\x00'
p741
tp742
bsg38
I3
sg39
g23
(g24
(I0
tp743
g26
tp744
Rp745
(I1
(I2
tp746
g33
I00
S'\x00\x00\x00\x00\x00\x00\xe0?\x00\x00\x00\x00\x00\x00\xe0?'
p747
tp748
bsg46
I1
sg48
(dp749
g50
I0
sg51
(lp750
g53
ag54
asg55
g10
sg56
F0.75
sg57
g23
(g24
(I0
tp751
g26
tp752
Rp753
(I1
(I2
tp754
g33
I00
S'\x00\x00\x00\x00\x00\x00\xe8?\x00\x00\x00\x00\x00\x00\xd0?'
p755
tp756
bsg38
I3
sg64
I0
sg65
F0.0
ssg66
g9
(g67
g17
(dp757
tp758
Rp759
(dp760
g48
g654
sbsg128
g9
(g16
g17
(dp761
tp762
Rp763
(dp764
g22
g23
(g24
(I0
tp765
g26
tp766
Rp767
(I1
(I2
tp768
g33
I00
S'\x00\x00\x00\x00\x00\x00\xe0?\x00\x00\x00\x00\x00\x00\xe0?'
p769
tp770
bsbsg139
(dp771
g54
I1
sg53
I0
ssg141
g23
(g24
(I0
tp772
g26
tp773
Rp774
(I1
(I2
tp775
g33
I00
S'\x00\x00\x00\x00\x00\x00\xe8?\x00\x00\x00\x00\x00\x00\xd0?'
p776
tp777
bsbsg54
g9
(g54
g11
Ntp778
Rp779
(dp780
g128
(dp781
sg38
I3
sg46
I1
sg48
(dp782
g50
I0
sg51
(lp783
g53
ag54
asg55
g10
sg56
F0.75
sg57
g23
(g24
(I0
tp784
g26
tp785
Rp786
(I1
(I2
tp787
g33
I00
S'\x00\x00\x00\x00\x00\x00\xe8?\x00\x00\x00\x00\x00\x00\xd0?'
p788
tp789
bsg38
I3
sg64
I0
sg65
F0.0
ssg15
(dp790
sbstp791
Rp792
(dp793
g128
g763
sg15
g729
sg164
g9
(g10
g11
Ntp794
Rp795
(dp796
g15
g729
sg38
I3
sg39
g23
(g24
(I0
tp797
g26
tp798
Rp799
(I1
(I2
tp800
g33
I00
S'\x00\x00\x00\x00\x00\x00\xe0?\x00\x00\x00\x00\x00\x00\xe0?'
p801
tp802
bsg46
I1
sg48
(dp803
g50
I0
sg51
(lp804
g53
ag54
asg55
g10
sg56
F0.75
sg57
g23
(g24
(I0
tp805
g26
tp806
Rp807
(I1
(I2
tp808
g33
I00
S'\x00\x00\x00\x00\x00\x00\xe8?\x00\x00\x00\x00\x00\x00\xd0?'
p809
tp810
bsg38
I3
sg64
I0
sg65
F0.0
ssg66
g9
(g67
g17
(dp811
tp812
Rp813
(dp814
g48
g654
sbsg128
g763
sg139
(dp815
g54
I1
sg53
I0
ssg141
g733
sbsbstp816
Rp817
(dp818
g48
g654
sbsg128
g9
(g16
g17
(dp819
I0
g23
(g24
(I0
tp820
g26
tp821
Rp822
(I1
(I2
tp823
g33
I00
S'\xff\xb4B\x03\xb7\x92\xc4?\xc1R/?R\xdb\xea?'
p824
tp825
bsI1
g23
(g24
(I0
tp826
g26
tp827
Rp828
(I1
(I2
tp829
g33
I00
S'\xff\xb4B\x03\xb7\x92\xc4?\xc1R/?R\xdb\xea?'
p830
tp831
bstp832
Rp833
(dp834
g22
g23
(g24
(I0
tp835
g26
tp836
Rp837
(I1
(I2
tp838
g33
I00
S'\x00\x00\x00\x00\x00\x00\xe0?\x00\x00\x00\x00\x00\x00\xe0?'
p839
tp840
bsbsg139
(dp841
g54
I1
sg53
I0
ssg141
g591
sbsg57
F0.75
sg300
F0.75
sg301
I2
satp842
a((F0.75
F0.75
F0.75
S'Forgiveness'
p843
tp844
(lp845
(dp846
g5
g843
sg6
F0.75
sg7
F0.75
sg8
g9
(g10
g11
Ntp847
Rp848
(dp849
g15
g9
(g16
g17
(dp850
tp851
Rp852
(dp853
g22
g23
(g24
(I0
tp854
g26
tp855
Rp856
(I1
(I2
tp857
g33
I00
S'\x00\x00\x00\x00\x00\x00\xe8?\x00\x00\x00\x00\x00\x00\xd0?'
p858
tp859
bsbsg38
I3
sg39
g23
(g24
(I0
tp860
g26
tp861
Rp862
(I1
(I2
tp863
g33
I00
S'\x00\x00\x00\x00\x00\x00\xe0?\x00\x00\x00\x00\x00\x00\xe0?'
p864
tp865
bsg46
g47
sg48
(dp866
g50
I0
sg51
(lp867
g53
ag54
asg55
g10
sg56
F0.75
sg57
g23
(g24
(I0
tp868
g26
tp869
Rp870
(I1
(I2
tp871
g33
I00
S'\x00\x00\x00\x00\x00\x00\xe8?\x00\x00\x00\x00\x00\x00\xd0?'
p872
tp873
bsg38
I3
sg64
I0
sg65
F0.0
ssg66
g9
(g67
g17
(dp874
I0
g9
(g69
g17
(dp875
g53
g9
(g53
g11
Ntp876
Rp877
(dp878
g15
g9
(g16
g17
(dp879
I1
g23
(g24
(I0
tp880
g26
tp881
Rp882
(I1
(I2
tp883
g33
I00
S'\x00\x00\x00\x00\x00\x00\xe8?\x00\x00\x00\x00\x00\x00\xd0?'
p884
tp885
bstp886
Rp887
(dp888
g22
g23
(g24
(I0
tp889
g26
tp890
Rp891
(I1
(I2
tp892
g33
I00
S'\x00\x00\x00\x00\x00\x00\xe8?\x00\x00\x00\x00\x00\x00\xd0?'
p893
tp894
bsbsg90
g23
(g24
(I0
tp895
g26
tp896
Rp897
(I1
(I1
tp898
g97
I00
S'\x00\x00\x00\x00\x00\x00\x00\x00'
p899
tp900
bsg38
I3
sg39
g23
(g24
(I0
tp901
g26
tp902
Rp903
(I1
(I2
tp904
g33
I00
S'\x00\x00\x00\x00\x00\x00\xe0?\x00\x00\x00\x00\x00\x00\xe0?'
p905
tp906
bsg46
I0
sg48
(dp907
g50
I0
sg51
(lp908
g53
ag54
asg55
g10
sg56
F0.75
sg57
g23
(g24
(I0
tp909
g26
tp910
Rp911
(I1
(I2
tp912
g33
I00
S'\x00\x00\x00\x00\x00\x00\xe8?\x00\x00\x00\x00\x00\x00\xd0?'
p913
tp914
bsg38
I3
sg64
I0
sg65
F0.0
ssg66
g9
(g67
g17
(dp915
tp916
Rp917
(dp918
g48
(dp919
g50
I0
sg51
(lp920
g53
ag54
asg65
F0.0
sg56
F0.75
sg57
g23
(g24
(I0
tp921
g26
tp922
Rp923
(I1
(I2
tp924
g33
I00
S'\x00\x00\x00\x00\x00\x00\xe8?\x00\x00\x00\x00\x00\x00\xd0?'
p925
tp926
bsg38
I3
sg64
I0
sg55
g10
ssbsg128
g9
(g16
g17
(dp927
tp928
Rp929
(dp930
g22
g23
(g24
(I0
tp931
g26
tp932
Rp933
(I1
(I2
tp934
g33
I00
S'\x00\x00\x00\x00\x00\x00\xe0?\x00\x00\x00\x00\x00\x00\xe0?'
p935
tp936
bsbsg139
(dp937
g54
I1
sg53
I0
ssg141
g23
(g24
(I0
tp938
g26
tp939
Rp940
(I1
(I2
tp941
g33
I00
S'\x00\x00\x00\x00\x00\x00\xe8?\x00\x00\x00\x00\x00\x00\xd0?'
p942
tp943
bsbsg54
g9
(g54
g11
Ntp944
Rp945
(dp946
g128
(dp947
sg38
I3
sg46
I0
sg48
(dp948
g50
I0
sg51
(lp949
g53
ag54
asg55
g10
sg56
F0.75
sg57
g23
(g24
(I0
tp950
g26
tp951
Rp952
(I1
(I2
tp953
g33
I00
S'\x00\x00\x00\x00\x00\x00\xe8?\x00\x00\x00\x00\x00\x00\xd0?'
p954
tp955
bsg38
I3
sg64
I0
sg65
F0.0
ssg15
(dp956
sbstp957
Rp958
(dp959
g128
g929
sg15
g887
sg164
g9
(g10
g11
Ntp960
Rp961
(dp962
g15
g887
sg38
I3
sg39
g23
(g24
(I0
tp963
g26
tp964
Rp965
(I1
(I2
tp966
g33
I00
S'\x00\x00\x00\x00\x00\x00\xe0?\x00\x00\x00\x00\x00\x00\xe0?'
p967
tp968
bsg46
I0
sg48
(dp969
g50
I0
sg51
(lp970
g53
ag54
asg55
g10
sg56
F0.75
sg57
g23
(g24
(I0
tp971
g26
tp972
Rp973
(I1
(I2
tp974
g33
I00
S'\x00\x00\x00\x00\x00\x00\xe8?\x00\x00\x00\x00\x00\x00\xd0?'
p975
tp976
bsg38
I3
sg64
I0
sg65
F0.0
ssg66
g9
(g67
g17
(dp977
tp978
Rp979
(dp980
g48
g919
sbsg128
g929
sg139
(dp981
g54
I1
sg53
I0
ssg141
g891
sbsbsI1
g9
(g69
g17
(dp982
g53
g9
(g53
g11
Ntp983
Rp984
(dp985
g15
g9
(g16
g17
(dp986
I0
g23
(g24
(I0
tp987
g26
tp988
Rp989
(I1
(I2
tp990
g33
I00
S'\x00\x00\x00\x00\x00\x00\xe8?\x00\x00\x00\x00\x00\x00\xd0?'
p991
tp992
bstp993
Rp994
(dp995
g22
g23
(g24
(I0
tp996
g26
tp997
Rp998
(I1
(I2
tp999
g33
I00
S'\x00\x00\x00\x00\x00\x00\xe8?\x00\x00\x00\x00\x00\x00\xd0?'
p1000
tp1001
bsbsg90
g23
(g24
(I0
tp1002
g26
tp1003
Rp1004
(I1
(I1
tp1005
g97
I00
S'\x00\x00\x00\x00\x00\x00\x00\x00'
p1006
tp1007
bsg38
I3
sg39
g23
(g24
(I0
tp1008
g26
tp1009
Rp1010
(I1
(I2
tp1011
g33
I00
S'\x00\x00\x00\x00\x00\x00\xe0?\x00\x00\x00\x00\x00\x00\xe0?'
p1012
tp1013
bsg46
I1
sg48
(dp1014
g50
I0
sg51
(lp1015
g53
ag54
asg55
g10
sg56
F0.75
sg57
g23
(g24
(I0
tp1016
g26
tp1017
Rp1018
(I1
(I2
tp1019
g33
I00
S'\x00\x00\x00\x00\x00\x00\xe8?\x00\x00\x00\x00\x00\x00\xd0?'
p1020
tp1021
bsg38
I3
sg64
I0
sg65
F0.0
ssg66
g9
(g67
g17
(dp1022
tp1023
Rp1024
(dp1025
g48
g919
sbsg128
g9
(g16
g17
(dp1026
tp1027
Rp1028
(dp1029
g22
g23
(g24
(I0
tp1030
g26
tp1031
Rp1032
(I1
(I2
tp1033
g33
I00
S'\x00\x00\x00\x00\x00\x00\xe0?\x00\x00\x00\x00\x00\x00\xe0?'
p1034
tp1035
bsbsg139
(dp1036
g54
I1
sg53
I0
ssg141
g23
(g24
(I0
tp1037
g26
tp1038
Rp1039
(I1
(I2
tp1040
g33
I00
S'\x00\x00\x00\x00\x00\x00\xe8?\x00\x00\x00\x00\x00\x00\xd0?'
p1041
tp1042
bsbsg54
g9
(g54
g11
Ntp1043
Rp1044
(dp1045
g128
(dp1046
sg38
I3
sg46
I1
sg48
(dp1047
g50
I0
sg51
(lp1048
g53
ag54
asg55
g10
sg56
F0.75
sg57
g23
(g24
(I0
tp1049
g26
tp1050
Rp1051
(I1
(I2
tp1052
g33
I00
S'\x00\x00\x00\x00\x00\x00\xe8?\x00\x00\x00\x00\x00\x00\xd0?'
p1053
tp1054
bsg38
I3
sg64
I0
sg65
F0.0
ssg15
(dp1055
sbstp1056
Rp1057
(dp1058
g128
g1028
sg15
g994
sg164
g9
(g10
g11
Ntp1059
Rp1060
(dp1061
g15
g994
sg38
I3
sg39
g23
(g24
(I0
tp1062
g26
tp1063
Rp1064
(I1
(I2
tp1065
g33
I00
S'\x00\x00\x00\x00\x00\x00\xe0?\x00\x00\x00\x00\x00\x00\xe0?'
p1066
tp1067
bsg46
I1
sg48
(dp1068
g50
I0
sg51
(lp1069
g53
ag54
asg55
g10
sg56
F0.75
sg57
g23
(g24
(I0
tp1070
g26
tp1071
Rp1072
(I1
(I2
tp1073
g33
I00
S'\x00\x00\x00\x00\x00\x00\xe8?\x00\x00\x00\x00\x00\x00\xd0?'
p1074
tp1075
bsg38
I3
sg64
I0
sg65
F0.0
ssg66
g9
(g67
g17
(dp1076
tp1077
Rp1078
(dp1079
g48
g919
sbsg128
g1028
sg139
(dp1080
g54
I1
sg53
I0
ssg141
g998
sbsbstp1081
Rp1082
(dp1083
g48
g919
sbsg128
g9
(g16
g17
(dp1084
tp1085
Rp1086
(dp1087
g22
g23
(g24
(I0
tp1088
g26
tp1089
Rp1090
(I1
(I2
tp1091
g33
I00
S'\x00\x00\x00\x00\x00\x00\xe0?\x00\x00\x00\x00\x00\x00\xe0?'
p1092
tp1093
bsbsg139
(dp1094
g54
I1
sg53
I0
ssg141
g856
sbsg300
F0.75
sg301
I0
sa(dp1095
g5
g843
sg7
F0.75
sg8
g9
(g10
g11
Ntp1096
Rp1097
(dp1098
g15
g9
(g16
g17
(dp1099
I0
g23
(g24
(I0
tp1100
g26
tp1101
Rp1102
(I1
(I2
tp1103
g33
I00
S'\xe7\xd3t\x8aPZ\xd7?\x0c\x96\xc5\xba\xd7R\xe4?'
p1104
tp1105
bsI1
g23
(g24
(I0
tp1106
g26
tp1107
Rp1108
(I1
(I2
tp1109
g33
I00
S'\x00\x00\x00\x00\x00\x00\xe8?\x00\x00\x00\x00\x00\x00\xd0?'
p1110
tp1111
bstp1112
Rp1113
(dp1114
g22
g23
(g24
(I0
tp1115
g26
tp1116
Rp1117
(I1
(I2
tp1118
g33
I00
S'\x00\x00\x00\x00\x00\x00\xe8?\x00\x00\x00\x00\x00\x00\xd0?'
p1119
tp1120
bsbsg38
I3
sg39
g23
(g24
(I0
tp1121
g26
tp1122
Rp1123
(I1
(I2
tp1124
g33
I00
S'\x00\x00\x00\x00\x00\x00\xe0?\x00\x00\x00\x00\x00\x00\xe0?'
p1125
tp1126
bsg46
g47
sg48
(dp1127
g50
I0
sg51
(lp1128
g53
ag54
asg55
g10
sg56
F0.75
sg57
g23
(g24
(I0
tp1129
g26
tp1130
Rp1131
(I1
(I2
tp1132
g33
I00
S'\x00\x00\x00\x00\x00\x00\xe8?\x00\x00\x00\x00\x00\x00\xd0?'
p1133
tp1134
bsg38
I3
sg64
I0
sg65
F0.0
ssg66
g9
(g67
g17
(dp1135
I0
g9
(g69
g17
(dp1136
g53
g9
(g53
g11
Ntp1137
Rp1138
(dp1139
g15
g9
(g16
g17
(dp1140
I1
g23
(g24
(I0
tp1141
g26
tp1142
Rp1143
(I1
(I2
tp1144
g33
I00
S'\x00\x00\x00\x00\x00\x00\xe8?\x00\x00\x00\x00\x00\x00\xd0?'
p1145
tp1146
bstp1147
Rp1148
(dp1149
g22
g23
(g24
(I0
tp1150
g26
tp1151
Rp1152
(I1
(I2
tp1153
g33
I00
S'\x00\x00\x00\x00\x00\x00\xe8?\x00\x00\x00\x00\x00\x00\xd0?'
p1154
tp1155
bsbsg90
g23
(g24
(I0
tp1156
g26
tp1157
Rp1158
(I1
(I1
tp1159
g97
I00
S'\x00\x00\x00\x00\x00\x00\x00\x00'
p1160
tp1161
bsg38
I3
sg39
g23
(g24
(I0
tp1162
g26
tp1163
Rp1164
(I1
(I2
tp1165
g33
I00
S'\x00\x00\x00\x00\x00\x00\xe0?\x00\x00\x00\x00\x00\x00\xe0?'
p1166
tp1167
bsg46
I0
sg48
(dp1168
g50
I0
sg51
(lp1169
g53
ag54
asg55
g10
sg56
F0.75
sg57
g23
(g24
(I0
tp1170
g26
tp1171
Rp1172
(I1
(I2
tp1173
g33
I00
S'\x00\x00\x00\x00\x00\x00\xe8?\x00\x00\x00\x00\x00\x00\xd0?'
p1174
tp1175
bsg38
I3
sg64
I0
sg65
F0.0
ssg66
g9
(g67
g17
(dp1176
tp1177
Rp1178
(dp1179
g48
(dp1180
g50
I0
sg51
(lp1181
g53
ag54
asg65
F0.0
sg56
F0.75
sg57
g23
(g24
(I0
tp1182
g26
tp1183
Rp1184
(I1
(I2
tp1185
g33
I00
S'\x00\x00\x00\x00\x00\x00\xe8?\x00\x00\x00\x00\x00\x00\xd0?'
p1186
tp1187
bsg38
I3
sg64
I0
sg55
g10
ssbsg128
g9
(g16
g17
(dp1188
tp1189
Rp1190
(dp1191
g22
g23
(g24
(I0
tp1192
g26
tp1193
Rp1194
(I1
(I2
tp1195
g33
I00
S'\x00\x00\x00\x00\x00\x00\xe0?\x00\x00\x00\x00\x00\x00\xe0?'
p1196
tp1197
bsbsg139
(dp1198
g54
I1
sg53
I0
ssg141
g23
(g24
(I0
tp1199
g26
tp1200
Rp1201
(I1
(I2
tp1202
g33
I00
S'\x00\x00\x00\x00\x00\x00\xe8?\x00\x00\x00\x00\x00\x00\xd0?'
p1203
tp1204
bsbsg54
g9
(g54
g11
Ntp1205
Rp1206
(dp1207
g128
(dp1208
sg38
I3
sg46
I0
sg48
(dp1209
g50
I0
sg51
(lp1210
g53
ag54
asg55
g10
sg56
F0.75
sg57
g23
(g24
(I0
tp1211
g26
tp1212
Rp1213
(I1
(I2
tp1214
g33
I00
S'\x00\x00\x00\x00\x00\x00\xe8?\x00\x00\x00\x00\x00\x00\xd0?'
p1215
tp1216
bsg38
I3
sg64
I0
sg65
F0.0
ssg15
(dp1217
sbstp1218
Rp1219
(dp1220
g128
g1190
sg15
g1148
sg164
g9
(g10
g11
Ntp1221
Rp1222
(dp1223
g15
g1148
sg38
I3
sg39
g23
(g24
(I0
tp1224
g26
tp1225
Rp1226
(I1
(I2
tp1227
g33
I00
S'\x00\x00\x00\x00\x00\x00\xe0?\x00\x00\x00\x00\x00\x00\xe0?'
p1228
tp1229
bsg46
I0
sg48
(dp1230
g50
I0
sg51
(lp1231
g53
ag54
asg55
g10
sg56
F0.75
sg57
g23
(g24
(I0
tp1232
g26
tp1233
Rp1234
(I1
(I2
tp1235
g33
I00
S'\x00\x00\x00\x00\x00\x00\xe8?\x00\x00\x00\x00\x00\x00\xd0?'
p1236
tp1237
bsg38
I3
sg64
I0
sg65
F0.0
ssg66
g9
(g67
g17
(dp1238
tp1239
Rp1240
(dp1241
g48
g1180
sbsg128
g1190
sg139
(dp1242
g54
I1
sg53
I0
ssg141
g1152
sbsbsI1
g9
(g69
g17
(dp1243
g53
g9
(g53
g11
Ntp1244
Rp1245
(dp1246
g15
g9
(g16
g17
(dp1247
I0
g23
(g24
(I0
tp1248
g26
tp1249
Rp1250
(I1
(I2
tp1251
g33
I00
S'\x00\x00\x00\x00\x00\x00\xe8?\x00\x00\x00\x00\x00\x00\xd0?'
p1252
tp1253
bstp1254
Rp1255
(dp1256
g22
g23
(g24
(I0
tp1257
g26
tp1258
Rp1259
(I1
(I2
tp1260
g33
I00
S'\x00\x00\x00\x00\x00\x00\xe8?\x00\x00\x00\x00\x00\x00\xd0?'
p1261
tp1262
bsbsg90
g23
(g24
(I0
tp1263
g26
tp1264
Rp1265
(I1
(I1
tp1266
g97
I00
S'\x00\x00\x00\x00\x00\x00\x00\x00'
p1267
tp1268
bsg38
I3
sg39
g23
(g24
(I0
tp1269
g26
tp1270
Rp1271
(I1
(I2
tp1272
g33
I00
S'\x00\x00\x00\x00\x00\x00\xe0?\x00\x00\x00\x00\x00\x00\xe0?'
p1273
tp1274
bsg46
I1
sg48
(dp1275
g50
I0
sg51
(lp1276
g53
ag54
asg55
g10
sg56
F0.75
sg57
g23
(g24
(I0
tp1277
g26
tp1278
Rp1279
(I1
(I2
tp1280
g33
I00
S'\x00\x00\x00\x00\x00\x00\xe8?\x00\x00\x00\x00\x00\x00\xd0?'
p1281
tp1282
bsg38
I3
sg64
I0
sg65
F0.0
ssg66
g9
(g67
g17
(dp1283
tp1284
Rp1285
(dp1286
g48
g1180
sbsg128
g9
(g16
g17
(dp1287
tp1288
Rp1289
(dp1290
g22
g23
(g24
(I0
tp1291
g26
tp1292
Rp1293
(I1
(I2
tp1294
g33
I00
S'\x00\x00\x00\x00\x00\x00\xe0?\x00\x00\x00\x00\x00\x00\xe0?'
p1295
tp1296
bsbsg139
(dp1297
g54
I1
sg53
I0
ssg141
g23
(g24
(I0
tp1298
g26
tp1299
Rp1300
(I1
(I2
tp1301
g33
I00
S'\x00\x00\x00\x00\x00\x00\xe8?\x00\x00\x00\x00\x00\x00\xd0?'
p1302
tp1303
bsbsg54
g9
(g54
g11
Ntp1304
Rp1305
(dp1306
g128
(dp1307
sg38
I3
sg46
I1
sg48
(dp1308
g50
I0
sg51
(lp1309
g53
ag54
asg55
g10
sg56
F0.75
sg57
g23
(g24
(I0
tp1310
g26
tp1311
Rp1312
(I1
(I2
tp1313
g33
I00
S'\x00\x00\x00\x00\x00\x00\xe8?\x00\x00\x00\x00\x00\x00\xd0?'
p1314
tp1315
bsg38
I3
sg64
I0
sg65
F0.0
ssg15
(dp1316
sbstp1317
Rp1318
(dp1319
g128
g1289
sg15
g1255
sg164
g9
(g10
g11
Ntp1320
Rp1321
(dp1322
g15
g1255
sg38
I3
sg39
g23
(g24
(I0
tp1323
g26
tp1324
Rp1325
(I1
(I2
tp1326
g33
I00
S'\x00\x00\x00\x00\x00\x00\xe0?\x00\x00\x00\x00\x00\x00\xe0?'
p1327
tp1328
bsg46
I1
sg48
(dp1329
g50
I0
sg51
(lp1330
g53
ag54
asg55
g10
sg56
F0.75
sg57
g23
(g24
(I0
tp1331
g26
tp1332
Rp1333
(I1
(I2
tp1334
g33
I00
S'\x00\x00\x00\x00\x00\x00\xe8?\x00\x00\x00\x00\x00\x00\xd0?'
p1335
tp1336
bsg38
I3
sg64
I0
sg65
F0.0
ssg66
g9
(g67
g17
(dp1337
tp1338
Rp1339
(dp1340
g48
g1180
sbsg128
g1289
sg139
(dp1341
g54
I1
sg53
I0
ssg141
g1259
sbsbstp1342
Rp1343
(dp1344
g48
g1180
sbsg128
g9
(g16
g17
(dp1345
I0
g23
(g24
(I0
tp1346
g26
tp1347
Rp1348
(I1
(I2
tp1349
g33
I00
S'\xff\xb4B\x03\xb7\x92\xc4?\xc1R/?R\xdb\xea?'
p1350
tp1351
bstp1352
Rp1353
(dp1354
g22
g23
(g24
(I0
tp1355
g26
tp1356
Rp1357
(I1
(I2
tp1358
g33
I00
S'\x00\x00\x00\x00\x00\x00\xe0?\x00\x00\x00\x00\x00\x00\xe0?'
p1359
tp1360
bsbsg139
(dp1361
g54
I1
sg53
I0
ssg141
g1117
sbsg57
F0.75
sg300
F0.75
sg301
I1
sa(dp1362
g5
g843
sg7
F0.75
sg8
g9
(g10
g11
Ntp1363
Rp1364
(dp1365
g15
g9
(g16
g17
(dp1366
I0
g23
(g24
(I0
tp1367
g26
tp1368
Rp1369
(I1
(I2
tp1370
g33
I00
S'\xe7\xd3t\x8aPZ\xd7?\x0c\x96\xc5\xba\xd7R\xe4?'
p1371
tp1372
bsI1
g23
(g24
(I0
tp1373
g26
tp1374
Rp1375
(I1
(I2
tp1376
g33
I00
S'\x15\x97{\xab\x9ad\xef?c\x1d\x8d\x90\xaal\x93?'
p1377
tp1378
bstp1379
Rp1380
(dp1381
g22
g23
(g24
(I0
tp1382
g26
tp1383
Rp1384
(I1
(I2
tp1385
g33
I00
S'\x00\x00\x00\x00\x00\x00\xe8?\x00\x00\x00\x00\x00\x00\xd0?'
p1386
tp1387
bsbsg38
I3
sg39
g23
(g24
(I0
tp1388
g26
tp1389
Rp1390
(I1
(I2
tp1391
g33
I00
S'\x00\x00\x00\x00\x00\x00\xe0?\x00\x00\x00\x00\x00\x00\xe0?'
p1392
tp1393
bsg46
g47
sg48
(dp1394
g50
I0
sg51
(lp1395
g53
ag54
asg55
g10
sg56
F0.75
sg57
g23
(g24
(I0
tp1396
g26
tp1397
Rp1398
(I1
(I2
tp1399
g33
I00
S'\x00\x00\x00\x00\x00\x00\xe8?\x00\x00\x00\x00\x00\x00\xd0?'
p1400
tp1401
bsg38
I3
sg64
I0
sg65
F0.0
ssg66
g9
(g67
g17
(dp1402
I0
g9
(g69
g17
(dp1403
g53
g9
(g53
g11
Ntp1404
Rp1405
(dp1406
g15
g9
(g16
g17
(dp1407
I1
g23
(g24
(I0
tp1408
g26
tp1409
Rp1410
(I1
(I2
tp1411
g33
I00
S'\x00\x00\x00\x00\x00\x00\xe8?\x00\x00\x00\x00\x00\x00\xd0?'
p1412
tp1413
bstp1414
Rp1415
(dp1416
g22
g23
(g24
(I0
tp1417
g26
tp1418
Rp1419
(I1
(I2
tp1420
g33
I00
S'\x00\x00\x00\x00\x00\x00\xe8?\x00\x00\x00\x00\x00\x00\xd0?'
p1421
tp1422
bsbsg90
g23
(g24
(I0
tp1423
g26
tp1424
Rp1425
(I1
(I1
tp1426
g97
I00
S'\x00\x00\x00\x00\x00\x00\x00\x00'
p1427
tp1428
bsg38
I3
sg39
g23
(g24
(I0
tp1429
g26
tp1430
Rp1431
(I1
(I2
tp1432
g33
I00
S'\x00\x00\x00\x00\x00\x00\xe0?\x00\x00\x00\x00\x00\x00\xe0?'
p1433
tp1434
bsg46
I0
sg48
(dp1435
g50
I0
sg51
(lp1436
g53
ag54
asg55
g10
sg56
F0.75
sg57
g23
(g24
(I0
tp1437
g26
tp1438
Rp1439
(I1
(I2
tp1440
g33
I00
S'\x00\x00\x00\x00\x00\x00\xe8?\x00\x00\x00\x00\x00\x00\xd0?'
p1441
tp1442
bsg38
I3
sg64
I0
sg65
F0.0
ssg66
g9
(g67
g17
(dp1443
tp1444
Rp1445
(dp1446
g48
(dp1447
g50
I0
sg51
(lp1448
g53
ag54
asg65
F0.0
sg56
F0.75
sg57
g23
(g24
(I0
tp1449
g26
tp1450
Rp1451
(I1
(I2
tp1452
g33
I00
S'\x00\x00\x00\x00\x00\x00\xe8?\x00\x00\x00\x00\x00\x00\xd0?'
p1453
tp1454
bsg38
I3
sg64
I0
sg55
g10
ssbsg128
g9
(g16
g17
(dp1455
tp1456
Rp1457
(dp1458
g22
g23
(g24
(I0
tp1459
g26
tp1460
Rp1461
(I1
(I2
tp1462
g33
I00
S'\x00\x00\x00\x00\x00\x00\xe0?\x00\x00\x00\x00\x00\x00\xe0?'
p1463
tp1464
bsbsg139
(dp1465
g54
I1
sg53
I0
ssg141
g23
(g24
(I0
tp1466
g26
tp1467
Rp1468
(I1
(I2
tp1469
g33
I00
S'\x00\x00\x00\x00\x00\x00\xe8?\x00\x00\x00\x00\x00\x00\xd0?'
p1470
tp1471
bsbsg54
g9
(g54
g11
Ntp1472
Rp1473
(dp1474
g128
(dp1475
sg38
I3
sg46
I0
sg48
(dp1476
g50
I0
sg51
(lp1477
g53
ag54
asg55
g10
sg56
F0.75
sg57
g23
(g24
(I0
tp1478
g26
tp1479
Rp1480
(I1
(I2
tp1481
g33
I00
S'\x00\x00\x00\x00\x00\x00\xe8?\x00\x00\x00\x00\x00\x00\xd0?'
p1482
tp1483
bsg38
I3
sg64
I0
sg65
F0.0
ssg15
(dp1484
sbstp1485
Rp1486
(dp1487
g128
g1457
sg15
g1415
sg164
g9
(g10
g11
Ntp1488
Rp1489
(dp1490
g15
g1415
sg38
I3
sg39
g23
(g24
(I0
tp1491
g26
tp1492
Rp1493
(I1
(I2
tp1494
g33
I00
S'\x00\x00\x00\x00\x00\x00\xe0?\x00\x00\x00\x00\x00\x00\xe0?'
p1495
tp1496
bsg46
I0
sg48
(dp1497
g50
I0
sg51
(lp1498
g53
ag54
asg55
g10
sg56
F0.75
sg57
g23
(g24
(I0
tp1499
g26
tp1500
Rp1501
(I1
(I2
tp1502
g33
I00
S'\x00\x00\x00\x00\x00\x00\xe8?\x00\x00\x00\x00\x00\x00\xd0?'
p1503
tp1504
bsg38
I3
sg64
I0
sg65
F0.0
ssg66
g9
(g67
g17
(dp1505
tp1506
Rp1507
(dp1508
g48
g1447
sbsg128
g1457
sg139
(dp1509
g54
I1
sg53
I0
ssg141
g1419
sbsbsI1
g9
(g69
g17
(dp1510
g53
g9
(g53
g11
Ntp1511
Rp1512
(dp1513
g15
g9
(g16
g17
(dp1514
I0
g23
(g24
(I0
tp1515
g26
tp1516
Rp1517
(I1
(I2
tp1518
g33
I00
S'\x00\x00\x00\x00\x00\x00\xe8?\x00\x00\x00\x00\x00\x00\xd0?'
p1519
tp1520
bstp1521
Rp1522
(dp1523
g22
g23
(g24
(I0
tp1524
g26
tp1525
Rp1526
(I1
(I2
tp1527
g33
I00
S'\x00\x00\x00\x00\x00\x00\xe8?\x00\x00\x00\x00\x00\x00\xd0?'
p1528
tp1529
bsbsg90
g23
(g24
(I0
tp1530
g26
tp1531
Rp1532
(I1
(I1
tp1533
g97
I00
S'\x00\x00\x00\x00\x00\x00\x00\x00'
p1534
tp1535
bsg38
I3
sg39
g23
(g24
(I0
tp1536
g26
tp1537
Rp1538
(I1
(I2
tp1539
g33
I00
S'\x00\x00\x00\x00\x00\x00\xe0?\x00\x00\x00\x00\x00\x00\xe0?'
p1540
tp1541
bsg46
I1
sg48
(dp1542
g50
I0
sg51
(lp1543
g53
ag54
asg55
g10
sg56
F0.75
sg57
g23
(g24
(I0
tp1544
g26
tp1545
Rp1546
(I1
(I2
tp1547
g33
I00
S'\x00\x00\x00\x00\x00\x00\xe8?\x00\x00\x00\x00\x00\x00\xd0?'
p1548
tp1549
bsg38
I3
sg64
I0
sg65
F0.0
ssg66
g9
(g67
g17
(dp1550
tp1551
Rp1552
(dp1553
g48
g1447
sbsg128
g9
(g16
g17
(dp1554
tp1555
Rp1556
(dp1557
g22
g23
(g24
(I0
tp1558
g26
tp1559
Rp1560
(I1
(I2
tp1561
g33
I00
S'\x00\x00\x00\x00\x00\x00\xe0?\x00\x00\x00\x00\x00\x00\xe0?'
p1562
tp1563
bsbsg139
(dp1564
g54
I1
sg53
I0
ssg141
g23
(g24
(I0
tp1565
g26
tp1566
Rp1567
(I1
(I2
tp1568
g33
I00
S'\x00\x00\x00\x00\x00\x00\xe8?\x00\x00\x00\x00\x00\x00\xd0?'
p1569
tp1570
bsbsg54
g9
(g54
g11
Ntp1571
Rp1572
(dp1573
g128
(dp1574
sg38
I3
sg46
I1
sg48
(dp1575
g50
I0
sg51
(lp1576
g53
ag54
asg55
g10
sg56
F0.75
sg57
g23
(g24
(I0
tp1577
g26
tp1578
Rp1579
(I1
(I2
tp1580
g33
I00
S'\x00\x00\x00\x00\x00\x00\xe8?\x00\x00\x00\x00\x00\x00\xd0?'
p1581
tp1582
bsg38
I3
sg64
I0
sg65
F0.0
ssg15
(dp1583
sbstp1584
Rp1585
(dp1586
g128
g1556
sg15
g1522
sg164
g9
(g10
g11
Ntp1587
Rp1588
(dp1589
g15
g1522
sg38
I3
sg39
g23
(g24
(I0
tp1590
g26
tp1591
Rp1592
(I1
(I2
tp1593
g33
I00
S'\x00\x00\x00\x00\x00\x00\xe0?\x00\x00\x00\x00\x00\x00\xe0?'
p1594
tp1595
bsg46
I1
sg48
(dp1596
g50
I0
sg51
(lp1597
g53
ag54
asg55
g10
sg56
F0.75
sg57
g23
(g24
(I0
tp1598
g26
tp1599
Rp1600
(I1
(I2
tp1601
g33
I00
S'\x00\x00\x00\x00\x00\x00\xe8?\x00\x00\x00\x00\x00\x00\xd0?'
p1602
tp1603
bsg38
I3
sg64
I0
sg65
F0.0
ssg66
g9
(g67
g17
(dp1604
tp1605
Rp1606
(dp1607
g48
g1447
sbsg128
g1556
sg139
(dp1608
g54
I1
sg53
I0
ssg141
g1526
sbsbstp1609
Rp1610
(dp1611
g48
g1447
sbsg128
g9
(g16
g17
(dp1612
I0
g23
(g24
(I0
tp1613
g26
tp1614
Rp1615
(I1
(I2
tp1616
g33
I00
S'\xff\xb4B\x03\xb7\x92\xc4?\xc1R/?R\xdb\xea?'
p1617
tp1618
bsI1
g23
(g24
(I0
tp1619
g26
tp1620
Rp1621
(I1
(I2
tp1622
g33
I00
S'!\xd7\xc8<\xda>\xee?\xf9\x8dr3\\\x12\xac?'
p1623
tp1624
bstp1625
Rp1626
(dp1627
g22
g23
(g24
(I0
tp1628
g26
tp1629
Rp1630
(I1
(I2
tp1631
g33
I00
S'\x00\x00\x00\x00\x00\x00\xe0?\x00\x00\x00\x00\x00\x00\xe0?'
p1632
tp1633
bsbsg139
(dp1634
g54
I1
sg53
I0
ssg141
g1384
sbsg57
F0.75
sg300
F0.75
sg301
I2
satp1635
a((F0.75
F0.75
F0.75
S'CD'
p1636
tp1637
(lp1638
(dp1639
g5
g1636
sg6
F0.75
sg7
F0.75
sg8
g9
(g10
g11
Ntp1640
Rp1641
(dp1642
g15
g9
(g16
g17
(dp1643
tp1644
Rp1645
(dp1646
g22
g23
(g24
(I0
tp1647
g26
tp1648
Rp1649
(I1
(I2
tp1650
g33
I00
S'\x00\x00\x00\x00\x00\x00\xe8?\x00\x00\x00\x00\x00\x00\xd0?'
p1651
tp1652
bsbsg38
I3
sg39
g23
(g24
(I0
tp1653
g26
tp1654
Rp1655
(I1
(I2
tp1656
g33
I00
S'\x00\x00\x00\x00\x00\x00\xe0?\x00\x00\x00\x00\x00\x00\xe0?'
p1657
tp1658
bsg46
g47
sg48
(dp1659
g50
I0
sg51
(lp1660
g53
ag54
asg55
g10
sg56
F0.75
sg57
g23
(g24
(I0
tp1661
g26
tp1662
Rp1663
(I1
(I2
tp1664
g33
I00
S'\x00\x00\x00\x00\x00\x00\xe8?\x00\x00\x00\x00\x00\x00\xd0?'
p1665
tp1666
bsg38
I3
sg64
I0
sg65
F0.0
ssg66
g9
(g67
g17
(dp1667
I0
g9
(g69
g17
(dp1668
g53
g9
(g53
g11
Ntp1669
Rp1670
(dp1671
g15
g9
(g16
g17
(dp1672
I1
g23
(g24
(I0
tp1673
g26
tp1674
Rp1675
(I1
(I2
tp1676
g33
I00
S'\x00\x00\x00\x00\x00\x00\xe8?\x00\x00\x00\x00\x00\x00\xd0?'
p1677
tp1678
bstp1679
Rp1680
(dp1681
g22
g23
(g24
(I0
tp1682
g26
tp1683
Rp1684
(I1
(I2
tp1685
g33
I00
S'\x00\x00\x00\x00\x00\x00\xe8?\x00\x00\x00\x00\x00\x00\xd0?'
p1686
tp1687
bsbsg90
g23
(g24
(I0
tp1688
g26
tp1689
Rp1690
(I1
(I1
tp1691
g97
I00
S'\x00\x00\x00\x00\x00\x00\x00\x00'
p1692
tp1693
bsg38
I3
sg39
g23
(g24
(I0
tp1694
g26
tp1695
Rp1696
(I1
(I2
tp1697
g33
I00
S'\x00\x00\x00\x00\x00\x00\xe0?\x00\x00\x00\x00\x00\x00\xe0?'
p1698
tp1699
bsg46
I0
sg48
(dp1700
g50
I0
sg51
(lp1701
g53
ag54
asg55
g10
sg56
F0.75
sg57
g23
(g24
(I0
tp1702
g26
tp1703
Rp1704
(I1
(I2
tp1705
g33
I00
S'\x00\x00\x00\x00\x00\x00\xe8?\x00\x00\x00\x00\x00\x00\xd0?'
p1706
tp1707
bsg38
I3
sg64
I0
sg65
F0.0
ssg66
g9
(g67
g17
(dp1708
tp1709
Rp1710
(dp1711
g48
(dp1712
g50
I0
sg51
(lp1713
g53
ag54
asg65
F0.0
sg56
F0.75
sg57
g23
(g24
(I0
tp1714
g26
tp1715
Rp1716
(I1
(I2
tp1717
g33
I00
S'\x00\x00\x00\x00\x00\x00\xe8?\x00\x00\x00\x00\x00\x00\xd0?'
p1718
tp1719
bsg38
I3
sg64
I0
sg55
g10
ssbsg128
g9
(g16
g17
(dp1720
tp1721
Rp1722
(dp1723
g22
g23
(g24
(I0
tp1724
g26
tp1725
Rp1726
(I1
(I2
tp1727
g33
I00
S'\x00\x00\x00\x00\x00\x00\xe0?\x00\x00\x00\x00\x00\x00\xe0?'
p1728
tp1729
bsbsg139
(dp1730
g54
I1
sg53
I0
ssg141
g23
(g24
(I0
tp1731
g26
tp1732
Rp1733
(I1
(I2
tp1734
g33
I00
S'\x00\x00\x00\x00\x00\x00\xe8?\x00\x00\x00\x00\x00\x00\xd0?'
p1735
tp1736
bsbsg54
g9
(g54
g11
Ntp1737
Rp1738
(dp1739
g128
(dp1740
sg38
I3
sg46
I0
sg48
(dp1741
g50
I0
sg51
(lp1742
g53
ag54
asg55
g10
sg56
F0.75
sg57
g23
(g24
(I0
tp1743
g26
tp1744
Rp1745
(I1
(I2
tp1746
g33
I00
S'\x00\x00\x00\x00\x00\x00\xe8?\x00\x00\x00\x00\x00\x00\xd0?'
p1747
tp1748
bsg38
I3
sg64
I0
sg65
F0.0
ssg15
(dp1749
sbstp1750
Rp1751
(dp1752
g128
g1722
sg15
g1680
sg164
g9
(g10
g11
Ntp1753
Rp1754
(dp1755
g15
g1680
sg38
I3
sg39
g23
(g24
(I0
tp1756
g26
tp1757
Rp1758
(I1
(I2
tp1759
g33
I00
S'\x00\x00\x00\x00\x00\x00\xe0?\x00\x00\x00\x00\x00\x00\xe0?'
p1760
tp1761
bsg46
I0
sg48
(dp1762
g50
I0
sg51
(lp1763
g53
ag54
asg55
g10
sg56
F0.75
sg57
g23
(g24
(I0
tp1764
g26
tp1765
Rp1766
(I1
(I2
tp1767
g33
I00
S'\x00\x00\x00\x00\x00\x00\xe8?\x00\x00\x00\x00\x00\x00\xd0?'
p1768
tp1769
bsg38
I3
sg64
I0
sg65
F0.0
ssg66
g9
(g67
g17
(dp1770
tp1771
Rp1772
(dp1773
g48
g1712
sbsg128
g1722
sg139
(dp1774
g54
I1
sg53
I0
ssg141
g1684
sbsbsI1
g9
(g69
g17
(dp1775
g53
g9
(g53
g11
Ntp1776
Rp1777
(dp1778
g15
g9
(g16
g17
(dp1779
I0
g23
(g24
(I0
tp1780
g26
tp1781
Rp1782
(I1
(I2
tp1783
g33
I00
S'\x00\x00\x00\x00\x00\x00\xe8?\x00\x00\x00\x00\x00\x00\xd0?'
p1784
tp1785
bstp1786
Rp1787
(dp1788
g22
g23
(g24
(I0
tp1789
g26
tp1790
Rp1791
(I1
(I2
tp1792
g33
I00
S'\x00\x00\x00\x00\x00\x00\xe8?\x00\x00\x00\x00\x00\x00\xd0?'
p1793
tp1794
bsbsg90
g23
(g24
(I0
tp1795
g26
tp1796
Rp1797
(I1
(I1
tp1798
g97
I00
S'\x00\x00\x00\x00\x00\x00\x00\x00'
p1799
tp1800
bsg38
I3
sg39
g23
(g24
(I0
tp1801
g26
tp1802
Rp1803
(I1
(I2
tp1804
g33
I00
S'\x00\x00\x00\x00\x00\x00\xe0?\x00\x00\x00\x00\x00\x00\xe0?'
p1805
tp1806
bsg46
I1
sg48
(dp1807
g50
I0
sg51
(lp1808
g53
ag54
asg55
g10
sg56
F0.75
sg57
g23
(g24
(I0
tp1809
g26
tp1810
Rp1811
(I1
(I2
tp1812
g33
I00
S'\x00\x00\x00\x00\x00\x00\xe8?\x00\x00\x00\x00\x00\x00\xd0?'
p1813
tp1814
bsg38
I3
sg64
I0
sg65
F0.0
ssg66
g9
(g67
g17
(dp1815
tp1816
Rp1817
(dp1818
g48
g1712
sbsg128
g9
(g16
g17
(dp1819
tp1820
Rp1821
(dp1822
g22
g23
(g24
(I0
tp1823
g26
tp1824
Rp1825
(I1
(I2
tp1826
g33
I00
S'\x00\x00\x00\x00\x00\x00\xe0?\x00\x00\x00\x00\x00\x00\xe0?'
p1827
tp1828
bsbsg139
(dp1829
g54
I1
sg53
I0
ssg141
g23
(g24
(I0
tp1830
g26
tp1831
Rp1832
(I1
(I2
tp1833
g33
I00
S'\x00\x00\x00\x00\x00\x00\xe8?\x00\x00\x00\x00\x00\x00\xd0?'
p1834
tp1835
bsbsg54
g9
(g54
g11
Ntp1836
Rp1837
(dp1838
g128
(dp1839
sg38
I3
sg46
I1
sg48
(dp1840
g50
I0
sg51
(lp1841
g53
ag54
asg55
g10
sg56
F0.75
sg57
g23
(g24
(I0
tp1842
g26
tp1843
Rp1844
(I1
(I2
tp1845
g33
I00
S'\x00\x00\x00\x00\x00\x00\xe8?\x00\x00\x00\x00\x00\x00\xd0?'
p1846
tp1847
bsg38
I3
sg64
I0
sg65
F0.0
ssg15
(dp1848
sbstp1849
Rp1850
(dp1851
g128
g1821
sg15
g1787
sg164
g9
(g10
g11
Ntp1852
Rp1853
(dp1854
g15
g1787
sg38
I3
sg39
g23
(g24
(I0
tp1855
g26
tp1856
Rp1857
(I1
(I2
tp1858
g33
I00
S'\x00\x00\x00\x00\x00\x00\xe0?\x00\x00\x00\x00\x00\x00\xe0?'
p1859
tp1860
bsg46
I1
sg48
(dp1861
g50
I0
sg51
(lp1862
g53
ag54
asg55
g10
sg56
F0.75
sg57
g23
(g24
(I0
tp1863
g26
tp1864
Rp1865
(I1
(I2
tp1866
g33
I00
S'\x00\x00\x00\x00\x00\x00\xe8?\x00\x00\x00\x00\x00\x00\xd0?'
p1867
tp1868
bsg38
I3
sg64
I0
sg65
F0.0
ssg66
g9
(g67
g17
(dp1869
tp1870
Rp1871
(dp1872
g48
g1712
sbsg128
g1821
sg139
(dp1873
g54
I1
sg53
I0
ssg141
g1791
sbsbstp1874
Rp1875
(dp1876
g48
g1712
sbsg128
g9
(g16
g17
(dp1877
tp1878
Rp1879
(dp1880
g22
g23
(g24
(I0
tp1881
g26
tp1882
Rp1883
(I1
(I2
tp1884
g33
I00
S'\x00\x00\x00\x00\x00\x00\xe0?\x00\x00\x00\x00\x00\x00\xe0?'
p1885
tp1886
bsbsg139
(dp1887
g54
I1
sg53
I0
ssg141
g1649
sbsg300
F0.75
sg301
I0
sa(dp1888
g5
g1636
sg7
F0.75
sg8
g9
(g10
g11
Ntp1889
Rp1890
(dp1891
g15
g9
(g16
g17
(dp1892
I0
g23
(g24
(I0
tp1893
g26
tp1894
Rp1895
(I1
(I2
tp1896
g33
I00
S'\xe7\xd3t\x8aPZ\xd7?\x0c\x96\xc5\xba\xd7R\xe4?'
p1897
tp1898
bsI1
g23
(g24
(I0
tp1899
g26
tp1900
Rp1901
(I1
(I2
tp1902
g33
I00
S'\x15\x97{\xab\x9ad\xef?c\x1d\x8d\x90\xaal\x93?'
p1903
tp1904
bstp1905
Rp1906
(dp1907
g22
g23
(g24
(I0
tp1908
g26
tp1909
Rp1910
(I1
(I2
tp1911
g33
I00
S'\x00\x00\x00\x00\x00\x00\xe8?\x00\x00\x00\x00\x00\x00\xd0?'
p1912
tp1913
bsbsg38
I3
sg39
g23
(g24
(I0
tp1914
g26
tp1915
Rp1916
(I1
(I2
tp1917
g33
I00
S'\x00\x00\x00\x00\x00\x00\xe0?\x00\x00\x00\x00\x00\x00\xe0?'
p1918
tp1919
bsg46
g47
sg48
(dp1920
g50
I0
sg51
(lp1921
g53
ag54
asg55
g10
sg56
F0.75
sg57
g23
(g24
(I0
tp1922
g26
tp1923
Rp1924
(I1
(I2
tp1925
g33
I00
S'\x00\x00\x00\x00\x00\x00\xe8?\x00\x00\x00\x00\x00\x00\xd0?'
p1926
tp1927
bsg38
I3
sg64
I0
sg65
F0.0
ssg66
g9
(g67
g17
(dp1928
I0
g9
(g69
g17
(dp1929
g53
g9
(g53
g11
Ntp1930
Rp1931
(dp1932
g15
g9
(g16
g17
(dp1933
I1
g23
(g24
(I0
tp1934
g26
tp1935
Rp1936
(I1
(I2
tp1937
g33
I00
S'\x00\x00\x00\x00\x00\x00\xe8?\x00\x00\x00\x00\x00\x00\xd0?'
p1938
tp1939
bstp1940
Rp1941
(dp1942
g22
g23
(g24
(I0
tp1943
g26
tp1944
Rp1945
(I1
(I2
tp1946
g33
I00
S'\x00\x00\x00\x00\x00\x00\xe8?\x00\x00\x00\x00\x00\x00\xd0?'
p1947
tp1948
bsbsg90
g23
(g24
(I0
tp1949
g26
tp1950
Rp1951
(I1
(I1
tp1952
g97
I00
S'\x00\x00\x00\x00\x00\x00\x00\x00'
p1953
tp1954
bsg38
I3
sg39
g23
(g24
(I0
tp1955
g26
tp1956
Rp1957
(I1
(I2
tp1958
g33
I00
S'\x00\x00\x00\x00\x00\x00\xe0?\x00\x00\x00\x00\x00\x00\xe0?'
p1959
tp1960
bsg46
I0
sg48
(dp1961
g50
I0
sg51
(lp1962
g53
ag54
asg55
g10
sg56
F0.75
sg57
g23
(g24
(I0
tp1963
g26
tp1964
Rp1965
(I1
(I2
tp1966
g33
I00
S'\x00\x00\x00\x00\x00\x00\xe8?\x00\x00\x00\x00\x00\x00\xd0?'
p1967
tp1968
bsg38
I3
sg64
I0
sg65
F0.0
ssg66
g9
(g67
g17
(dp1969
tp1970
Rp1971
(dp1972
g48
(dp1973
g50
I0
sg51
(lp1974
g53
ag54
asg65
F0.0
sg56
F0.75
sg57
g23
(g24
(I0
tp1975
g26
tp1976
Rp1977
(I1
(I2
tp1978
g33
I00
S'\x00\x00\x00\x00\x00\x00\xe8?\x00\x00\x00\x00\x00\x00\xd0?'
p1979
tp1980
bsg38
I3
sg64
I0
sg55
g10
ssbsg128
g9
(g16
g17
(dp1981
tp1982
Rp1983
(dp1984
g22
g23
(g24
(I0
tp1985
g26
tp1986
Rp1987
(I1
(I2
tp1988
g33
I00
S'\x00\x00\x00\x00\x00\x00\xe0?\x00\x00\x00\x00\x00\x00\xe0?'
p1989
tp1990
bsbsg139
(dp1991
g54
I1
sg53
I0
ssg141
g23
(g24
(I0
tp1992
g26
tp1993
Rp1994
(I1
(I2
tp1995
g33
I00
S'\x00\x00\x00\x00\x00\x00\xe8?\x00\x00\x00\x00\x00\x00\xd0?'
p1996
tp1997
bsbsg54
g9
(g54
g11
Ntp1998
Rp1999
(dp2000
g128
(dp2001
sg38
I3
sg46
I0
sg48
(dp2002
g50
I0
sg51
(lp2003
g53
ag54
asg55
g10
sg56
F0.75
sg57
g23
(g24
(I0
tp2004
g26
tp2005
Rp2006
(I1
(I2
tp2007
g33
I00
S'\x00\x00\x00\x00\x00\x00\xe8?\x00\x00\x00\x00\x00\x00\xd0?'
p2008
tp2009
bsg38
I3
sg64
I0
sg65
F0.0
ssg15
(dp2010
sbstp2011
Rp2012
(dp2013
g128
g1983
sg15
g1941
sg164
g9
(g10
g11
Ntp2014
Rp2015
(dp2016
g15
g1941
sg38
I3
sg39
g23
(g24
(I0
tp2017
g26
tp2018
Rp2019
(I1
(I2
tp2020
g33
I00
S'\x00\x00\x00\x00\x00\x00\xe0?\x00\x00\x00\x00\x00\x00\xe0?'
p2021
tp2022
bsg46
I0
sg48
(dp2023
g50
I0
sg51
(lp2024
g53
ag54
asg55
g10
sg56
F0.75
sg57
g23
(g24
(I0
tp2025
g26
tp2026
Rp2027
(I1
(I2
tp2028
g33
I00
S'\x00\x00\x00\x00\x00\x00\xe8?\x00\x00\x00\x00\x00\x00\xd0?'
p2029
tp2030
bsg38
I3
sg64
I0
sg65
F0.0
ssg66
g9
(g67
g17
(dp2031
tp2032
Rp2033
(dp2034
g48
g1973
sbsg128
g1983
sg139
(dp2035
g54
I1
sg53
I0
ssg141
g1945
sbsbsI1
g9
(g69
g17
(dp2036
g53
g9
(g53
g11
Ntp2037
Rp2038
(dp2039
g15
g9
(g16
g17
(dp2040
I0
g23
(g24
(I0
tp2041
g26
tp2042
Rp2043
(I1
(I2
tp2044
g33
I00
S'\x00\x00\x00\x00\x00\x00\xe8?\x00\x00\x00\x00\x00\x00\xd0?'
p2045
tp2046
bstp2047
Rp2048
(dp2049
g22
g23
(g24
(I0
tp2050
g26
tp2051
Rp2052
(I1
(I2
tp2053
g33
I00
S'\x00\x00\x00\x00\x00\x00\xe8?\x00\x00\x00\x00\x00\x00\xd0?'
p2054
tp2055
bsbsg90
g23
(g24
(I0
tp2056
g26
tp2057
Rp2058
(I1
(I1
tp2059
g97
I00
S'\x00\x00\x00\x00\x00\x00\x00\x00'
p2060
tp2061
bsg38
I3
sg39
g23
(g24
(I0
tp2062
g26
tp2063
Rp2064
(I1
(I2
tp2065
g33
I00
S'\x00\x00\x00\x00\x00\x00\xe0?\x00\x00\x00\x00\x00\x00\xe0?'
p2066
tp2067
bsg46
I1
sg48
(dp2068
g50
I0
sg51
(lp2069
g53
ag54
asg55
g10
sg56
F0.75
sg57
g23
(g24
(I0
tp2070
g26
tp2071
Rp2072
(I1
(I2
tp2073
g33
I00
S'\x00\x00\x00\x00\x00\x00\xe8?\x00\x00\x00\x00\x00\x00\xd0?'
p2074
tp2075
bsg38
I3
sg64
I0
sg65
F0.0
ssg66
g9
(g67
g17
(dp2076
tp2077
Rp2078
(dp2079
g48
g1973
sbsg128
g9
(g16
g17
(dp2080
tp2081
Rp2082
(dp2083
g22
g23
(g24
(I0
tp2084
g26
tp2085
Rp2086
(I1
(I2
tp2087
g33
I00
S'\x00\x00\x00\x00\x00\x00\xe0?\x00\x00\x00\x00\x00\x00\xe0?'
p2088
tp2089
bsbsg139
(dp2090
g54
I1
sg53
I0
ssg141
g23
(g24
(I0
tp2091
g26
tp2092
Rp2093
(I1
(I2
tp2094
g33
I00
S'\x00\x00\x00\x00\x00\x00\xe8?\x00\x00\x00\x00\x00\x00\xd0?'
p2095
tp2096
bsbsg54
g9
(g54
g11
Ntp2097
Rp2098
(dp2099
g128
(dp2100
sg38
I3
sg46
I1
sg48
(dp2101
g50
I0
sg51
(lp2102
g53
ag54
asg55
g10
sg56
F0.75
sg57
g23
(g24
(I0
tp2103
g26
tp2104
Rp2105
(I1
(I2
tp2106
g33
I00
S'\x00\x00\x00\x00\x00\x00\xe8?\x00\x00\x00\x00\x00\x00\xd0?'
p2107
tp2108
bsg38
I3
sg64
I0
sg65
F0.0
ssg15
(dp2109
sbstp2110
Rp2111
(dp2112
g128
g2082
sg15
g2048
sg164
g9
(g10
g11
Ntp2113
Rp2114
(dp2115
g15
g2048
sg38
I3
sg39
g23
(g24
(I0
tp2116
g26
tp2117
Rp2118
(I1
(I2
tp2119
g33
I00
S'\x00\x00\x00\x00\x00\x00\xe0?\x00\x00\x00\x00\x00\x00\xe0?'
p2120
tp2121
bsg46
I1
sg48
(dp2122
g50
I0
sg51
(lp2123
g53
ag54
asg55
g10
sg56
F0.75
sg57
g23
(g24
(I0
tp2124
g26
tp2125
Rp2126
(I1
(I2
tp2127
g33
I00
S'\x00\x00\x00\x00\x00\x00\xe8?\x00\x00\x00\x00\x00\x00\xd0?'
p2128
tp2129
bsg38
I3
sg64
I0
sg65
F0.0
ssg66
g9
(g67
g17
(dp2130
tp2131
Rp2132
(dp2133
g48
g1973
sbsg128
g2082
sg139
(dp2134
g54
I1
sg53
I0
ssg141
g2052
sbsbstp2135
Rp2136
(dp2137
g48
g1973
sbsg128
g9
(g16
g17
(dp2138
I0
g23
(g24
(I0
tp2139
g26
tp2140
Rp2141
(I1
(I2
tp2142
g33
I00
S'\xff\xb4B\x03\xb7\x92\xc4?\xc1R/?R\xdb\xea?'
p2143
tp2144
bsI1
g23
(g24
(I0
tp2145
g26
tp2146
Rp2147
(I1
(I2
tp2148
g33
I00
S'!\xd7\xc8<\xda>\xee?\xf9\x8dr3\\\x12\xac?'
p2149
tp2150
bstp2151
Rp2152
(dp2153
g22
g23
(g24
(I0
tp2154
g26
tp2155
Rp2156
(I1
(I2
tp2157
g33
I00
S'\x00\x00\x00\x00\x00\x00\xe0?\x00\x00\x00\x00\x00\x00\xe0?'
p2158
tp2159
bsbsg139
(dp2160
g54
I1
sg53
I0
ssg141
g1910
sbsg57
F0.75
sg300
F0.75
sg301
I1
sa(dp2161
g5
g1636
sg7
F0.75
sg8
g9
(g10
g11
Ntp2162
Rp2163
(dp2164
g15
g9
(g16
g17
(dp2165
I0
g23
(g24
(I0
tp2166
g26
tp2167
Rp2168
(I1
(I2
tp2169
g33
I00
S"-\\\x85\x1b\xbb\x10\xed?\x9f\x1e\xd5#'z\xb7?"
p2170
tp2171
bsI1
g23
(g24
(I0
tp2172
g26
tp2173
Rp2174
(I1
(I2
tp2175
g33
I00
S'\x15\x97{\xab\x9ad\xef?c\x1d\x8d\x90\xaal\x93?'
p2176
tp2177
bstp2178
Rp2179
(dp2180
g22
g23
(g24
(I0
tp2181
g26
tp2182
Rp2183
(I1
(I2
tp2184
g33
I00
S'\x00\x00\x00\x00\x00\x00\xe8?\x00\x00\x00\x00\x00\x00\xd0?'
p2185
tp2186
bsbsg38
I3
sg39
g23
(g24
(I0
tp2187
g26
tp2188
Rp2189
(I1
(I2
tp2190
g33
I00
S'\x00\x00\x00\x00\x00\x00\xe0?\x00\x00\x00\x00\x00\x00\xe0?'
p2191
tp2192
bsg46
g47
sg48
(dp2193
g50
I0
sg51
(lp2194
g53
ag54
asg55
g10
sg56
F0.75
sg57
g23
(g24
(I0
tp2195
g26
tp2196
Rp2197
(I1
(I2
tp2198
g33
I00
S'\x00\x00\x00\x00\x00\x00\xe8?\x00\x00\x00\x00\x00\x00\xd0?'
p2199
tp2200
bsg38
I3
sg64
I0
sg65
F0.0
ssg66
g9
(g67
g17
(dp2201
I0
g9
(g69
g17
(dp2202
g53
g9
(g53
g11
Ntp2203
Rp2204
(dp2205
g15
g9
(g16
g17
(dp2206
I1
g23
(g24
(I0
tp2207
g26
tp2208
Rp2209
(I1
(I2
tp2210
g33
I00
S'\x00\x00\x00\x00\x00\x00\xe8?\x00\x00\x00\x00\x00\x00\xd0?'
p2211
tp2212
bstp2213
Rp2214
(dp2215
g22
g23
(g24
(I0
tp2216
g26
tp2217
Rp2218
(I1
(I2
tp2219
g33
I00
S'\x00\x00\x00\x00\x00\x00\xe8?\x00\x00\x00\x00\x00\x00\xd0?'
p2220
tp2221
bsbsg90
g23
(g24
(I0
tp2222
g26
tp2223
Rp2224
(I1
(I1
tp2225
g97
I00
S'\x00\x00\x00\x00\x00\x00\x00\x00'
p2226
tp2227
bsg38
I3
sg39
g23
(g24
(I0
tp2228
g26
tp2229
Rp2230
(I1
(I2
tp2231
g33
I00
S'\x00\x00\x00\x00\x00\x00\xe0?\x00\x00\x00\x00\x00\x00\xe0?'
p2232
tp2233
bsg46
I0
sg48
(dp2234
g50
I0
sg51
(lp2235
g53
ag54
asg55
g10
sg56
F0.75
sg57
g23
(g24
(I0
tp2236
g26
tp2237
Rp2238
(I1
(I2
tp2239
g33
I00
S'\x00\x00\x00\x00\x00\x00\xe8?\x00\x00\x00\x00\x00\x00\xd0?'
p2240
tp2241
bsg38
I3
sg64
I0
sg65
F0.0
ssg66
g9
(g67
g17
(dp2242
tp2243
Rp2244
(dp2245
g48
(dp2246
g50
I0
sg51
(lp2247
g53
ag54
asg65
F0.0
sg56
F0.75
sg57
g23
(g24
(I0
tp2248
g26
tp2249
Rp2250
(I1
(I2
tp2251
g33
I00
S'\x00\x00\x00\x00\x00\x00\xe8?\x00\x00\x00\x00\x00\x00\xd0?'
p2252
tp2253
bsg38
I3
sg64
I0
sg55
g10
ssbsg128
g9
(g16
g17
(dp2254
tp2255
Rp2256
(dp2257
g22
g23
(g24
(I0
tp2258
g26
tp2259
Rp2260
(I1
(I2
tp2261
g33
I00
S'\x00\x00\x00\x00\x00\x00\xe0?\x00\x00\x00\x00\x00\x00\xe0?'
p2262
tp2263
bsbsg139
(dp2264
g54
I1
sg53
I0
ssg141
g23
(g24
(I0
tp2265
g26
tp2266
Rp2267
(I1
(I2
tp2268
g33
I00
S'\x00\x00\x00\x00\x00\x00\xe8?\x00\x00\x00\x00\x00\x00\xd0?'
p2269
tp2270
bsbsg54
g9
(g54
g11
Ntp2271
Rp2272
(dp2273
g128
(dp2274
sg38
I3
sg46
I0
sg48
(dp2275
g50
I0
sg51
(lp2276
g53
ag54
asg55
g10
sg56
F0.75
sg57
g23
(g24
(I0
tp2277
g26
tp2278
Rp2279
(I1
(I2
tp2280
g33
I00
S'\x00\x00\x00\x00\x00\x00\xe8?\x00\x00\x00\x00\x00\x00\xd0?'
p2281
tp2282
bsg38
I3
sg64
I0
sg65
F0.0
ssg15
(dp2283
sbstp2284
Rp2285
(dp2286
g128
g2256
sg15
g2214
sg164
g9
(g10
g11
Ntp2287
Rp2288
(dp2289
g15
g2214
sg38
I3
sg39
g23
(g24
(I0
tp2290
g26
tp2291
Rp2292
(I1
(I2
tp2293
g33
I00
S'\x00\x00\x00\x00\x00\x00\xe0?\x00\x00\x00\x00\x00\x00\xe0?'
p2294
tp2295
bsg46
I0
sg48
(dp2296
g50
I0
sg51
(lp2297
g53
ag54
asg55
g10
sg56
F0.75
sg57
g23
(g24
(I0
tp2298
g26
tp2299
Rp2300
(I1
(I2
tp2301
g33
I00
S'\x00\x00\x00\x00\x00\x00\xe8?\x00\x00\x00\x00\x00\x00\xd0?'
p2302
tp2303
bsg38
I3
sg64
I0
sg65
F0.0
ssg66
g9
(g67
g17
(dp2304
tp2305
Rp2306
(dp2307
g48
g2246
sbsg128
g2256
sg139
(dp2308
g54
I1
sg53
I0
ssg141
g2218
sbsbsI1
g9
(g69
g17
(dp2309
g53
g9
(g53
g11
Ntp2310
Rp2311
(dp2312
g15
g9
(g16
g17
(dp2313
I0
g23
(g24
(I0
tp2314
g26
tp2315
Rp2316
(I1
(I2
tp2317
g33
I00
S'\x00\x00\x00\x00\x00\x00\xe8?\x00\x00\x00\x00\x00\x00\xd0?'
p2318
tp2319
bstp2320
Rp2321
(dp2322
g22
g23
(g24
(I0
tp2323
g26
tp2324
Rp2325
(I1
(I2
tp2326
g33
I00
S'\x00\x00\x00\x00\x00\x00\xe8?\x00\x00\x00\x00\x00\x00\xd0?'
p2327
tp2328
bsbsg90
g23
(g24
(I0
tp2329
g26
tp2330
Rp2331
(I1
(I1
tp2332
g97
I00
S'\x00\x00\x00\x00\x00\x00\x00\x00'
p2333
tp2334
bsg38
I3
sg39
g23
(g24
(I0
tp2335
g26
tp2336
Rp2337
(I1
(I2
tp2338
g33
I00
S'\x00\x00\x00\x00\x00\x00\xe0?\x00\x00\x00\x00\x00\x00\xe0?'
p2339
tp2340
bsg46
I1
sg48
(dp2341
g50
I0
sg51
(lp2342
g53
ag54
asg55
g10
sg56
F0.75
sg57
g23
(g24
(I0
tp2343
g26
tp2344
Rp2345
(I1
(I2
tp2346
g33
I00
S'\x00\x00\x00\x00\x00\x00\xe8?\x00\x00\x00\x00\x00\x00\xd0?'
p2347
tp2348
bsg38
I3
sg64
I0
sg65
F0.0
ssg66
g9
(g67
g17
(dp2349
tp2350
Rp2351
(dp2352
g48
g2246
sbsg128
g9
(g16
g17
(dp2353
tp2354
Rp2355
(dp2356
g22
g23
(g24
(I0
tp2357
g26
tp2358
Rp2359
(I1
(I2
tp2360
g33
I00
S'\x00\x00\x00\x00\x00\x00\xe0?\x00\x00\x00\x00\x00\x00\xe0?'
p2361
tp2362
bsbsg139
(dp2363
g54
I1
sg53
I0
ssg141
g23
(g24
(I0
tp2364
g26
tp2365
Rp2366
(I1
(I2
tp2367
g33
I00
S'\x00\x00\x00\x00\x00\x00\xe8?\x00\x00\x00\x00\x00\x00\xd0?'
p2368
tp2369
bsbsg54
g9
(g54
g11
Ntp2370
Rp2371
(dp2372
g128
(dp2373
sg38
I3
sg46
I1
sg48
(dp2374
g50
I0
sg51
(lp2375
g53
ag54
asg55
g10
sg56
F0.75
sg57
g23
(g24
(I0
tp2376
g26
tp2377
Rp2378
(I1
(I2
tp2379
g33
I00
S'\x00\x00\x00\x00\x00\x00\xe8?\x00\x00\x00\x00\x00\x00\xd0?'
p2380
tp2381
bsg38
I3
sg64
I0
sg65
F0.0
ssg15
(dp2382
sbstp2383
Rp2384
(dp2385
g128
g2355
sg15
g2321
sg164
g9
(g10
g11
Ntp2386
Rp2387
(dp2388
g15
g2321
sg38
I3
sg39
g23
(g24
(I0
tp2389
g26
tp2390
Rp2391
(I1
(I2
tp2392
g33
I00
S'\x00\x00\x00\x00\x00\x00\xe0?\x00\x00\x00\x00\x00\x00\xe0?'
p2393
tp2394
bsg46
I1
sg48
(dp2395
g50
I0
sg51
(lp2396
g53
ag54
asg55
g10
sg56
F0.75
sg57
g23
(g24
(I0
tp2397
g26
tp2398
Rp2399
(I1
(I2
tp2400
g33
I00
S'\x00\x00\x00\x00\x00\x00\xe8?\x00\x00\x00\x00\x00\x00\xd0?'
p2401
tp2402
bsg38
I3
sg64
I0
sg65
F0.0
ssg66
g9
(g67
g17
(dp2403
tp2404
Rp2405
(dp2406
g48
g2246
sbsg128
g2355
sg139
(dp2407
g54
I1
sg53
I0
ssg141
g2325
sbsbstp2408
Rp2409
(dp2410
g48
g2246
sbsg128
g9
(g16
g17
(dp2411
I0
g23
(g24
(I0
tp2412
g26
tp2413
Rp2414
(I1
(I2
tp2415
g33
I00
S"N'\x8e\x8a\x81\x8f\xe8?\xc8b\xc7\xd5\xf9\xc1\xcd?"
p2416
tp2417
bsI1
g23
(g24
(I0
tp2418
g26
tp2419
Rp2420
(I1
(I2
tp2421
g33
I00
S'!\xd7\xc8<\xda>\xee?\xf9\x8dr3\\\x12\xac?'
p2422
tp2423
bstp2424
Rp2425
(dp2426
g22
g23
(g24
(I0
tp2427
g26
tp2428
Rp2429
(I1
(I2
tp2430
g33
I00
S'\x00\x00\x00\x00\x00\x00\xe0?\x00\x00\x00\x00\x00\x00\xe0?'
p2431
tp2432
bsbsg139
(dp2433
g54
I1
sg53
I0
ssg141
g2183
sbsg57
F0.75
sg300
F0.75
sg301
I2
satp2434
a((F0.75
F0.75
F0.75
S'DC'
p2435
tp2436
(lp2437
(dp2438
g5
g2435
sg6
F0.75
sg7
F0.75
sg8
g9
(g10
g11
Ntp2439
Rp2440
(dp2441
g15
g9
(g16
g17
(dp2442
tp2443
Rp2444
(dp2445
g22
g23
(g24
(I0
tp2446
g26
tp2447
Rp2448
(I1
(I2
tp2449
g33
I00
S'\x00\x00\x00\x00\x00\x00\xe8?\x00\x00\x00\x00\x00\x00\xd0?'
p2450
tp2451
bsbsg38
I3
sg39
g23
(g24
(I0
tp2452
g26
tp2453
Rp2454
(I1
(I2
tp2455
g33
I00
S'\x00\x00\x00\x00\x00\x00\xe0?\x00\x00\x00\x00\x00\x00\xe0?'
p2456
tp2457
bsg46
g47
sg48
(dp2458
g50
I0
sg51
(lp2459
g53
ag54
asg55
g10
sg56
F0.75
sg57
g23
(g24
(I0
tp2460
g26
tp2461
Rp2462
(I1
(I2
tp2463
g33
I00
S'\x00\x00\x00\x00\x00\x00\xe8?\x00\x00\x00\x00\x00\x00\xd0?'
p2464
tp2465
bsg38
I3
sg64
I0
sg65
F0.0
ssg66
g9
(g67
g17
(dp2466
I0
g9
(g69
g17
(dp2467
g53
g9
(g53
g11
Ntp2468
Rp2469
(dp2470
g15
g9
(g16
g17
(dp2471
I1
g23
(g24
(I0
tp2472
g26
tp2473
Rp2474
(I1
(I2
tp2475
g33
I00
S'\x00\x00\x00\x00\x00\x00\xe8?\x00\x00\x00\x00\x00\x00\xd0?'
p2476
tp2477
bstp2478
Rp2479
(dp2480
g22
g23
(g24
(I0
tp2481
g26
tp2482
Rp2483
(I1
(I2
tp2484
g33
I00
S'\x00\x00\x00\x00\x00\x00\xe8?\x00\x00\x00\x00\x00\x00\xd0?'
p2485
tp2486
bsbsg90
g23
(g24
(I0
tp2487
g26
tp2488
Rp2489
(I1
(I1
tp2490
g97
I00
S'\x00\x00\x00\x00\x00\x00\x00\x00'
p2491
tp2492
bsg38
I3
sg39
g23
(g24
(I0
tp2493
g26
tp2494
Rp2495
(I1
(I2
tp2496
g33
I00
S'\x00\x00\x00\x00\x00\x00\xe0?\x00\x00\x00\x00\x00\x00\xe0?'
p2497
tp2498
bsg46
I0
sg48
(dp2499
g50
I0
sg51
(lp2500
g53
ag54
asg55
g10
sg56
F0.75
sg57
g23
(g24
(I0
tp2501
g26
tp2502
Rp2503
(I1
(I2
tp2504
g33
I00
S'\x00\x00\x00\x00\x00\x00\xe8?\x00\x00\x00\x00\x00\x00\xd0?'
p2505
tp2506
bsg38
I3
sg64
I0
sg65
F0.0
ssg66
g9
(g67
g17
(dp2507
tp2508
Rp2509
(dp2510
g48
(dp2511
g50
I0
sg51
(lp2512
g53
ag54
asg65
F0.0
sg56
F0.75
sg57
g23
(g24
(I0
tp2513
g26
tp2514
Rp2515
(I1
(I2
tp2516
g33
I00
S'\x00\x00\x00\x00\x00\x00\xe8?\x00\x00\x00\x00\x00\x00\xd0?'
p2517
tp2518
bsg38
I3
sg64
I0
sg55
g10
ssbsg128
g9
(g16
g17
(dp2519
tp2520
Rp2521
(dp2522
g22
g23
(g24
(I0
tp2523
g26
tp2524
Rp2525
(I1
(I2
tp2526
g33
I00
S'\x00\x00\x00\x00\x00\x00\xe0?\x00\x00\x00\x00\x00\x00\xe0?'
p2527
tp2528
bsbsg139
(dp2529
g54
I1
sg53
I0
ssg141
g23
(g24
(I0
tp2530
g26
tp2531
Rp2532
(I1
(I2
tp2533
g33
I00
S'\x00\x00\x00\x00\x00\x00\xe8?\x00\x00\x00\x00\x00\x00\xd0?'
p2534
tp2535
bsbsg54
g9
(g54
g11
Ntp2536
Rp2537
(dp2538
g128
(dp2539
sg38
I3
sg46
I0
sg48
(dp2540
g50
I0
sg51
(lp2541
g53
ag54
asg55
g10
sg56
F0.75
sg57
g23
(g24
(I0
tp2542
g26
tp2543
Rp2544
(I1
(I2
tp2545
g33
I00
S'\x00\x00\x00\x00\x00\x00\xe8?\x00\x00\x00\x00\x00\x00\xd0?'
p2546
tp2547
bsg38
I3
sg64
I0
sg65
F0.0
ssg15
(dp2548
sbstp2549
Rp2550
(dp2551
g128
g2521
sg15
g2479
sg164
g9
(g10
g11
Ntp2552
Rp2553
(dp2554
g15
g2479
sg38
I3
sg39
g23
(g24
(I0
tp2555
g26
tp2556
Rp2557
(I1
(I2
tp2558
g33
I00
S'\x00\x00\x00\x00\x00\x00\xe0?\x00\x00\x00\x00\x00\x00\xe0?'
p2559
tp2560
bsg46
I0
sg48
(dp2561
g50
I0
sg51
(lp2562
g53
ag54
asg55
g10
sg56
F0.75
sg57
g23
(g24
(I0
tp2563
g26
tp2564
Rp2565
(I1
(I2
tp2566
g33
I00
S'\x00\x00\x00\x00\x00\x00\xe8?\x00\x00\x00\x00\x00\x00\xd0?'
p2567
tp2568
bsg38
I3
sg64
I0
sg65
F0.0
ssg66
g9
(g67
g17
(dp2569
tp2570
Rp2571
(dp2572
g48
g2511
sbsg128
g2521
sg139
(dp2573
g54
I1
sg53
I0
ssg141
g2483
sbsbsI1
g9
(g69
g17
(dp2574
g53
g9
(g53
g11
Ntp2575
Rp2576
(dp2577
g15
g9
(g16
g17
(dp2578
I0
g23
(g24
(I0
tp2579
g26
tp2580
Rp2581
(I1
(I2
tp2582
g33
I00
S'\x00\x00\x00\x00\x00\x00\xe8?\x00\x00\x00\x00\x00\x00\xd0?'
p2583
tp2584
bstp2585
Rp2586
(dp2587
g22
g23
(g24
(I0
tp2588
g26
tp2589
Rp2590
(I1
(I2
tp2591
g33
I00
S'\x00\x00\x00\x00\x00\x00\xe8?\x00\x00\x00\x00\x00\x00\xd0?'
p2592
tp2593
bsbsg90
g23
(g24
(I0
tp2594
g26
tp2595
Rp2596
(I1
(I1
tp2597
g97
I00
S'\x00\x00\x00\x00\x00\x00\x00\x00'
p2598
tp2599
bsg38
I3
sg39
g23
(g24
(I0
tp2600
g26
tp2601
Rp2602
(I1
(I2
tp2603
g33
I00
S'\x00\x00\x00\x00\x00\x00\xe0?\x00\x00\x00\x00\x00\x00\xe0?'
p2604
tp2605
bsg46
I1
sg48
(dp2606
g50
I0
sg51
(lp2607
g53
ag54
asg55
g10
sg56
F0.75
sg57
g23
(g24
(I0
tp2608
g26
tp2609
Rp2610
(I1
(I2
tp2611
g33
I00
S'\x00\x00\x00\x00\x00\x00\xe8?\x00\x00\x00\x00\x00\x00\xd0?'
p2612
tp2613
bsg38
I3
sg64
I0
sg65
F0.0
ssg66
g9
(g67
g17
(dp2614
tp2615
Rp2616
(dp2617
g48
g2511
sbsg128
g9
(g16
g17
(dp2618
tp2619
Rp2620
(dp2621
g22
g23
(g24
(I0
tp2622
g26
tp2623
Rp2624
(I1
(I2
tp2625
g33
I00
S'\x00\x00\x00\x00\x00\x00\xe0?\x00\x00\x00\x00\x00\x00\xe0?'
p2626
tp2627
bsbsg139
(dp2628
g54
I1
sg53
I0
ssg141
g23
(g24
(I0
tp2629
g26
tp2630
Rp2631
(I1
(I2
tp2632
g33
I00
S'\x00\x00\x00\x00\x00\x00\xe8?\x00\x00\x00\x00\x00\x00\xd0?'
p2633
tp2634
bsbsg54
g9
(g54
g11
Ntp2635
Rp2636
(dp2637
g128
(dp2638
sg38
I3
sg46
I1
sg48
(dp2639
g50
I0
sg51
(lp2640
g53
ag54
asg55
g10
sg56
F0.75
sg57
g23
(g24
(I0
tp2641
g26
tp2642
Rp2643
(I1
(I2
tp2644
g33
I00
S'\x00\x00\x00\x00\x00\x00\xe8?\x00\x00\x00\x00\x00\x00\xd0?'
p2645
tp2646
bsg38
I3
sg64
I0
sg65
F0.0
ssg15
(dp2647
sbstp2648
Rp2649
(dp2650
g128
g2620
sg15
g2586
sg164
g9
(g10
g11
Ntp2651
Rp2652
(dp2653
g15
g2586
sg38
I3
sg39
g23
(g24
(I0
tp2654
g26
tp2655
Rp2656
(I1
(I2
tp2657
g33
I00
S'\x00\x00\x00\x00\x00\x00\xe0?\x00\x00\x00\x00\x00\x00\xe0?'
p2658
tp2659
bsg46
I1
sg48
(dp2660
g50
I0
sg51
(lp2661
g53
ag54
asg55
g10
sg56
F0.75
sg57
g23
(g24
(I0
tp2662
g26
tp2663
Rp2664
(I1
(I2
tp2665
g33
I00
S'\x00\x00\x00\x00\x00\x00\xe8?\x00\x00\x00\x00\x00\x00\xd0?'
p2666
tp2667
bsg38
I3
sg64
I0
sg65
F0.0
ssg66
g9
(g67
g17
(dp2668
tp2669
Rp2670
(dp2671
g48
g2511
sbsg128
g2620
sg139
(dp2672
g54
I1
sg53
I0
ssg141
g2590
sbsbstp2673
Rp2674
(dp2675
g48
g2511
sbsg128
g9
(g16
g17
(dp2676
tp2677
Rp2678
(dp2679
g22
g23
(g24
(I0
tp2680
g26
tp2681
Rp2682
(I1
(I2
tp2683
g33
I00
S'\x00\x00\x00\x00\x00\x00\xe0?\x00\x00\x00\x00\x00\x00\xe0?'
p2684
tp2685
bsbsg139
(dp2686
g54
I1
sg53
I0
ssg141
g2448
sbsg300
F0.75
sg301
I0
sa(dp2687
g5
g2435
sg7
F0.75
sg8
g9
(g10
g11
Ntp2688
Rp2689
(dp2690
g15
g9
(g16
g17
(dp2691
I0
g23
(g24
(I0
tp2692
g26
tp2693
Rp2694
(I1
(I2
tp2695
g33
I00
S'\x15\x97{\xab\x9ad\xef?c\x1d\x8d\x90\xaal\x93?'
p2696
tp2697
bsI1
g23
(g24
(I0
tp2698
g26
tp2699
Rp2700
(I1
(I2
tp2701
g33
I00
S'\x15\x97{\xab\x9ad\xef?c\x1d\x8d\x90\xaal\x93?'
p2702
tp2703
bstp2704
Rp2705
(dp2706
g22
g23
(g24
(I0
tp2707
g26
tp2708
Rp2709
(I1
(I2
tp2710
g33
I00
S'\x00\x00\x00\x00\x00\x00\xe8?\x00\x00\x00\x00\x00\x00\xd0?'
p2711
tp2712
bsbsg38
I3
sg39
g23
(g24
(I0
tp2713
g26
tp2714
Rp2715
(I1
(I2
tp2716
g33
I00
S'\x00\x00\x00\x00\x00\x00\xe0?\x00\x00\x00\x00\x00\x00\xe0?'
p2717
tp2718
bsg46
g47
sg48
(dp2719
g50
I0
sg51
(lp2720
g53
ag54
asg55
g10
sg56
F0.75
sg57
g23
(g24
(I0
tp2721
g26
tp2722
Rp2723
(I1
(I2
tp2724
g33
I00
S'\x00\x00\x00\x00\x00\x00\xe8?\x00\x00\x00\x00\x00\x00\xd0?'
p2725
tp2726
bsg38
I3
sg64
I0
sg65
F0.0
ssg66
g9
(g67
g17
(dp2727
I0
g9
(g69
g17
(dp2728
g53
g9
(g53
g11
Ntp2729
Rp2730
(dp2731
g15
g9
(g16
g17
(dp2732
I1
g23
(g24
(I0
tp2733
g26
tp2734
Rp2735
(I1
(I2
tp2736
g33
I00
S'\x00\x00\x00\x00\x00\x00\xe8?\x00\x00\x00\x00\x00\x00\xd0?'
p2737
tp2738
bstp2739
Rp2740
(dp2741
g22
g23
(g24
(I0
tp2742
g26
tp2743
Rp2744
(I1
(I2
tp2745
g33
I00
S'\x00\x00\x00\x00\x00\x00\xe8?\x00\x00\x00\x00\x00\x00\xd0?'
p2746
tp2747
bsbsg90
g23
(g24
(I0
tp2748
g26
tp2749
Rp2750
(I1
(I1
tp2751
g97
I00
S'\x00\x00\x00\x00\x00\x00\x00\x00'
p2752
tp2753
bsg38
I3
sg39
g23
(g24
(I0
tp2754
g26
tp2755
Rp2756
(I1
(I2
tp2757
g33
I00
S'\x00\x00\x00\x00\x00\x00\xe0?\x00\x00\x00\x00\x00\x00\xe0?'
p2758
tp2759
bsg46
I0
sg48
(dp2760
g50
I0
sg51
(lp2761
g53
ag54
asg55
g10
sg56
F0.75
sg57
g23
(g24
(I0
tp2762
g26
tp2763
Rp2764
(I1
(I2
tp2765
g33
I00
S'\x00\x00\x00\x00\x00\x00\xe8?\x00\x00\x00\x00\x00\x00\xd0?'
p2766
tp2767
bsg38
I3
sg64
I0
sg65
F0.0
ssg66
g9
(g67
g17
(dp2768
tp2769
Rp2770
(dp2771
g48
(dp2772
g50
I0
sg51
(lp2773
g53
ag54
asg65
F0.0
sg56
F0.75
sg57
g23
(g24
(I0
tp2774
g26
tp2775
Rp2776
(I1
(I2
tp2777
g33
I00
S'\x00\x00\x00\x00\x00\x00\xe8?\x00\x00\x00\x00\x00\x00\xd0?'
p2778
tp2779
bsg38
I3
sg64
I0
sg55
g10
ssbsg128
g9
(g16
g17
(dp2780
tp2781
Rp2782
(dp2783
g22
g23
(g24
(I0
tp2784
g26
tp2785
Rp2786
(I1
(I2
tp2787
g33
I00
S'\x00\x00\x00\x00\x00\x00\xe0?\x00\x00\x00\x00\x00\x00\xe0?'
p2788
tp2789
bsbsg139
(dp2790
g54
I1
sg53
I0
ssg141
g23
(g24
(I0
tp2791
g26
tp2792
Rp2793
(I1
(I2
tp2794
g33
I00
S'\x00\x00\x00\x00\x00\x00\xe8?\x00\x00\x00\x00\x00\x00\xd0?'
p2795
tp2796
bsbsg54
g9
(g54
g11
Ntp2797
Rp2798
(dp2799
g128
(dp2800
sg38
I3
sg46
I0
sg48
(dp2801
g50
I0
sg51
(lp2802
g53
ag54
asg55
g10
sg56
F0.75
sg57
g23
(g24
(I0
tp2803
g26
tp2804
Rp2805
(I1
(I2
tp2806
g33
I00
S'\x00\x00\x00\x00\x00\x00\xe8?\x00\x00\x00\x00\x00\x00\xd0?'
p2807
tp2808
bsg38
I3
sg64
I0
sg65
F0.0
ssg15
(dp2809
sbstp2810
Rp2811
(dp2812
g128
g2782
sg15
g2740
sg164
g9
(g10
g11
Ntp2813
Rp2814
(dp2815
g15
g2740
sg38
I3
sg39
g23
(g24
(I0
tp2816
g26
tp2817
Rp2818
(I1
(I2
tp2819
g33
I00
S'\x00\x00\x00\x00\x00\x00\xe0?\x00\x00\x00\x00\x00\x00\xe0?'
p2820
tp2821
bsg46
I0
sg48
(dp2822
g50
I0
sg51
(lp2823
g53
ag54
asg55
g10
sg56
F0.75
sg57
g23
(g24
(I0
tp2824
g26
tp2825
Rp2826
(I1
(I2
tp2827
g33
I00
S'\x00\x00\x00\x00\x00\x00\xe8?\x00\x00\x00\x00\x00\x00\xd0?'
p2828
tp2829
bsg38
I3
sg64
I0
sg65
F0.0
ssg66
g9
(g67
g17
(dp2830
tp2831
Rp2832
(dp2833
g48
g2772
sbsg128
g2782
sg139
(dp2834
g54
I1
sg53
I0
ssg141
g2744
sbsbsI1
g9
(g69
g17
(dp2835
g53
g9
(g53
g11
Ntp2836
Rp2837
(dp2838
g15
g9
(g16
g17
(dp2839
I0
g23
(g24
(I0
tp2840
g26
tp2841
Rp2842
(I1
(I2
tp2843
g33
I00
S'\x00\x00\x00\x00\x00\x00\xe8?\x00\x00\x00\x00\x00\x00\xd0?'
p2844
tp2845
bstp2846
Rp2847
(dp2848
g22
g23
(g24
(I0
tp2849
g26
tp2850
Rp2851
(I1
(I2
tp2852
g33
I00
S'\x00\x00\x00\x00\x00\x00\xe8?\x00\x00\x00\x00\x00\x00\xd0?'
p2853
tp2854
bsbsg90
g23
(g24
(I0
tp2855
g26
tp2856
Rp2857
(I1
(I1
tp2858
g97
I00
S'\x00\x00\x00\x00\x00\x00\x00\x00'
p2859
tp2860
bsg38
I3
sg39
g23
(g24
(I0
tp2861
g26
tp2862
Rp2863
(I1
(I2
tp2864
g33
I00
S'\x00\x00\x00\x00\x00\x00\xe0?\x00\x00\x00\x00\x00\x00\xe0?'
p2865
tp2866
bsg46
I1
sg48
(dp2867
g50
I0
sg51
(lp2868
g53
ag54
asg55
g10
sg56
F0.75
sg57
g23
(g24
(I0
tp2869
g26
tp2870
Rp2871
(I1
(I2
tp2872
g33
I00
S'\x00\x00\x00\x00\x00\x00\xe8?\x00\x00\x00\x00\x00\x00\xd0?'
p2873
tp2874
bsg38
I3
sg64
I0
sg65
F0.0
ssg66
g9
(g67
g17
(dp2875
tp2876
Rp2877
(dp2878
g48
g2772
sbsg128
g9
(g16
g17
(dp2879
tp2880
Rp2881
(dp2882
g22
g23
(g24
(I0
tp2883
g26
tp2884
Rp2885
(I1
(I2
tp2886
g33
I00
S'\x00\x00\x00\x00\x00\x00\xe0?\x00\x00\x00\x00\x00\x00\xe0?'
p2887
tp2888
bsbsg139
(dp2889
g54
I1
sg53
I0
ssg141
g23
(g24
(I0
tp2890
g26
tp2891
Rp2892
(I1
(I2
tp2893
g33
I00
S'\x00\x00\x00\x00\x00\x00\xe8?\x00\x00\x00\x00\x00\x00\xd0?'
p2894
tp2895
bsbsg54
g9
(g54
g11
Ntp2896
Rp2897
(dp2898
g128
(dp2899
sg38
I3
sg46
I1
sg48
(dp2900
g50
I0
sg51
(lp2901
g53
ag54
asg55
g10
sg56
F0.75
sg57
g23
(g24
(I0
tp2902
g26
tp2903
Rp2904
(I1
(I2
tp2905
g33
I00
S'\x00\x00\x00\x00\x00\x00\xe8?\x00\x00\x00\x00\x00\x00\xd0?'
p2906
tp2907
bsg38
I3
sg64
I0
sg65
F0.0
ssg15
(dp2908
sbstp2909
Rp2910
(dp2911
g128
g2881
sg15
g2847
sg164
g9
(g10
g11
Ntp2912
Rp2913
(dp2914
g15
g2847
sg38
I3
sg39
g23
(g24
(I0
tp2915
g26
tp2916
Rp2917
(I1
(I2
tp2918
g33
I00
S'\x00\x00\x00\x00\x00\x00\xe0?\x00\x00\x00\x00\x00\x00\xe0?'
p2919
tp2920
bsg46
I1
sg48
(dp2921
g50
I0
sg51
(lp2922
g53
ag54
asg55
g10
sg56
F0.75
sg57
g23
(g24
(I0
tp2923
g26
tp2924
Rp2925
(I1
(I2
tp2926
g33
I00
S'\x00\x00\x00\x00\x00\x00\xe8?\x00\x00\x00\x00\x00\x00\xd0?'
p2927
tp2928
bsg38
I3
sg64
I0
sg65
F0.0
ssg66
g9
(g67
g17
(dp2929
tp2930
Rp2931
(dp2932
g48
g2772
sbsg128
g2881
sg139
(dp2933
g54
I1
sg53
I0
ssg141
g2851
sbsbstp2934
Rp2935
(dp2936
g48
g2772
sbsg128
g9
(g16
g17
(dp2937
I0
g23
(g24
(I0
tp2938
g26
tp2939
Rp2940
(I1
(I2
tp2941
g33
I00
S'!\xd7\xc8<\xda>\xee?\xf9\x8dr3\\\x12\xac?'
p2942
tp2943
bsI1
g23
(g24
(I0
tp2944
g26
tp2945
Rp2946
(I1
(I2
tp2947
g33
I00
S'!\xd7\xc8<\xda>\xee?\xf9\x8dr3\\\x12\xac?'
p2948
tp2949
bstp2950
Rp2951
(dp2952
g22
g23
(g24
(I0
tp2953
g26
tp2954
Rp2955
(I1
(I2
tp2956
g33
I00
S'\x00\x00\x00\x00\x00\x00\xe0?\x00\x00\x00\x00\x00\x00\xe0?'
p2957
tp2958
bsbsg139
(dp2959
g54
I1
sg53
I0
ssg141
g2709
sbsg57
F0.75
sg300
F0.75
sg301
I1
sa(dp2960
g5
g2435
sg7
F0.75
sg8
g9
(g10
g11
Ntp2961
Rp2962
(dp2963
g15
g9
(g16
g17
(dp2964
I0
g23
(g24
(I0
tp2965
g26
tp2966
Rp2967
(I1
(I2
tp2968
g33
I00
S"-\\\x85\x1b\xbb\x10\xed?\x9f\x1e\xd5#'z\xb7?"
p2969
tp2970
bsI1
g23
(g24
(I0
tp2971
g26
tp2972
Rp2973
(I1
(I2
tp2974
g33
I00
S'\x15\x97{\xab\x9ad\xef?c\x1d\x8d\x90\xaal\x93?'
p2975
tp2976
bstp2977
Rp2978
(dp2979
g22
g23
(g24
(I0
tp2980
g26
tp2981
Rp2982
(I1
(I2
tp2983
g33
I00
S'\x00\x00\x00\x00\x00\x00\xe8?\x00\x00\x00\x00\x00\x00\xd0?'
p2984
tp2985
bsbsg38
I3
sg39
g23
(g24
(I0
tp2986
g26
tp2987
Rp2988
(I1
(I2
tp2989
g33
I00
S'\x00\x00\x00\x00\x00\x00\xe0?\x00\x00\x00\x00\x00\x00\xe0?'
p2990
tp2991
bsg46
g47
sg48
(dp2992
g50
I0
sg51
(lp2993
g53
ag54
asg55
g10
sg56
F0.75
sg57
g23
(g24
(I0
tp2994
g26
tp2995
Rp2996
(I1
(I2
tp2997
g33
I00
S'\x00\x00\x00\x00\x00\x00\xe8?\x00\x00\x00\x00\x00\x00\xd0?'
p2998
tp2999
bsg38
I3
sg64
I0
sg65
F0.0
ssg66
g9
(g67
g17
(dp3000
I0
g9
(g69
g17
(dp3001
g53
g9
(g53
g11
Ntp3002
Rp3003
(dp3004
g15
g9
(g16
g17
(dp3005
I1
g23
(g24
(I0
tp3006
g26
tp3007
Rp3008
(I1
(I2
tp3009
g33
I00
S'\x00\x00\x00\x00\x00\x00\xe8?\x00\x00\x00\x00\x00\x00\xd0?'
p3010
tp3011
bstp3012
Rp3013
(dp3014
g22
g23
(g24
(I0
tp3015
g26
tp3016
Rp3017
(I1
(I2
tp3018
g33
I00
S'\x00\x00\x00\x00\x00\x00\xe8?\x00\x00\x00\x00\x00\x00\xd0?'
p3019
tp3020
bsbsg90
g23
(g24
(I0
tp3021
g26
tp3022
Rp3023
(I1
(I1
tp3024
g97
I00
S'\x00\x00\x00\x00\x00\x00\x00\x00'
p3025
tp3026
bsg38
I3
sg39
g23
(g24
(I0
tp3027
g26
tp3028
Rp3029
(I1
(I2
tp3030
g33
I00
S'\x00\x00\x00\x00\x00\x00\xe0?\x00\x00\x00\x00\x00\x00\xe0?'
p3031
tp3032
bsg46
I0
sg48
(dp3033
g50
I0
sg51
(lp3034
g53
ag54
asg55
g10
sg56
F0.75
sg57
g23
(g24
(I0
tp3035
g26
tp3036
Rp3037
(I1
(I2
tp3038
g33
I00
S'\x00\x00\x00\x00\x00\x00\xe8?\x00\x00\x00\x00\x00\x00\xd0?'
p3039
tp3040
bsg38
I3
sg64
I0
sg65
F0.0
ssg66
g9
(g67
g17
(dp3041
tp3042
Rp3043
(dp3044
g48
(dp3045
g50
I0
sg51
(lp3046
g53
ag54
asg65
F0.0
sg56
F0.75
sg57
g23
(g24
(I0
tp3047
g26
tp3048
Rp3049
(I1
(I2
tp3050
g33
I00
S'\x00\x00\x00\x00\x00\x00\xe8?\x00\x00\x00\x00\x00\x00\xd0?'
p3051
tp3052
bsg38
I3
sg64
I0
sg55
g10
ssbsg128
g9
(g16
g17
(dp3053
tp3054
Rp3055
(dp3056
g22
g23
(g24
(I0
tp3057
g26
tp3058
Rp3059
(I1
(I2
tp3060
g33
I00
S'\x00\x00\x00\x00\x00\x00\xe0?\x00\x00\x00\x00\x00\x00\xe0?'
p3061
tp3062
bsbsg139
(dp3063
g54
I1
sg53
I0
ssg141
g23
(g24
(I0
tp3064
g26
tp3065
Rp3066
(I1
(I2
tp3067
g33
I00
S'\x00\x00\x00\x00\x00\x00\xe8?\x00\x00\x00\x00\x00\x00\xd0?'
p3068
tp3069
bsbsg54
g9
(g54
g11
Ntp3070
Rp3071
(dp3072
g128
(dp3073
sg38
I3
sg46
I0
sg48
(dp3074
g50
I0
sg51
(lp3075
g53
ag54
asg55
g10
sg56
F0.75
sg57
g23
(g24
(I0
tp3076
g26
tp3077
Rp3078
(I1
(I2
tp3079
g33
I00
S'\x00\x00\x00\x00\x00\x00\xe8?\x00\x00\x00\x00\x00\x00\xd0?'
p3080
tp3081
bsg38
I3
sg64
I0
sg65
F0.0
ssg15
(dp3082
sbstp3083
Rp3084
(dp3085
g128
g3055
sg15
g3013
sg164
g9
(g10
g11
Ntp3086
Rp3087
(dp3088
g15
g3013
sg38
I3
sg39
g23
(g24
(I0
tp3089
g26
tp3090
Rp3091
(I1
(I2
tp3092
g33
I00
S'\x00\x00\x00\x00\x00\x00\xe0?\x00\x00\x00\x00\x00\x00\xe0?'
p3093
tp3094
bsg46
I0
sg48
(dp3095
g50
I0
sg51
(lp3096
g53
ag54
asg55
g10
sg56
F0.75
sg57
g23
(g24
(I0
tp3097
g26
tp3098
Rp3099
(I1
(I2
tp3100
g33
I00
S'\x00\x00\x00\x00\x00\x00\xe8?\x00\x00\x00\x00\x00\x00\xd0?'
p3101
tp3102
bsg38
I3
sg64
I0
sg65
F0.0
ssg66
g9
(g67
g17
(dp3103
tp3104
Rp3105
(dp3106
g48
g3045
sbsg128
g3055
sg139
(dp3107
g54
I1
sg53
I0
ssg141
g3017
sbsbsI1
g9
(g69
g17
(dp3108
g53
g9
(g53
g11
Ntp3109
Rp3110
(dp3111
g15
g9
(g16
g17
(dp3112
I0
g23
(g24
(I0
tp3113
g26
tp3114
Rp3115
(I1
(I2
tp3116
g33
I00
S'\x00\x00\x00\x00\x00\x00\xe8?\x00\x00\x00\x00\x00\x00\xd0?'
p3117
tp3118
bstp3119
Rp3120
(dp3121
g22
g23
(g24
(I0
tp3122
g26
tp3123
Rp3124
(I1
(I2
tp3125
g33
I00
S'\x00\x00\x00\x00\x00\x00\xe8?\x00\x00\x00\x00\x00\x00\xd0?'
p3126
tp3127
bsbsg90
g23
(g24
(I0
tp3128
g26
tp3129
Rp3130
(I1
(I1
tp3131
g97
I00
S'\x00\x00\x00\x00\x00\x00\x00\x00'
p3132
tp3133
bsg38
I3
sg39
g23
(g24
(I0
tp3134
g26
tp3135
Rp3136
(I1
(I2
tp3137
g33
I00
S'\x00\x00\x00\x00\x00\x00\xe0?\x00\x00\x00\x00\x00\x00\xe0?'
p3138
tp3139
bsg46
I1
sg48
(dp3140
g50
I0
sg51
(lp3141
g53
ag54
asg55
g10
sg56
F0.75
sg57
g23
(g24
(I0
tp3142
g26
tp3143
Rp3144
(I1
(I2
tp3145
g33
I00
S'\x00\x00\x00\x00\x00\x00\xe8?\x00\x00\x00\x00\x00\x00\xd0?'
p3146
tp3147
bsg38
I3
sg64
I0
sg65
F0.0
ssg66
g9
(g67
g17
(dp3148
tp3149
Rp3150
(dp3151
g48
g3045
sbsg128
g9
(g16
g17
(dp3152
tp3153
Rp3154
(dp3155
g22
g23
(g24
(I0
tp3156
g26
tp3157
Rp3158
(I1
(I2
tp3159
g33
I00
S'\x00\x00\x00\x00\x00\x00\xe0?\x00\x00\x00\x00\x00\x00\xe0?'
p3160
tp3161
bsbsg139
(dp3162
g54
I1
sg53
I0
ssg141
g23
(g24
(I0
tp3163
g26
tp3164
Rp3165
(I1
(I2
tp3166
g33
I00
S'\x00\x00\x00\x00\x00\x00\xe8?\x00\x00\x00\x00\x00\x00\xd0?'
p3167
tp3168
bsbsg54
g9
(g54
g11
Ntp3169
Rp3170
(dp3171
g128
(dp3172
sg38
I3
sg46
I1
sg48
(dp3173
g50
I0
sg51
(lp3174
g53
ag54
asg55
g10
sg56
F0.75
sg57
g23
(g24
(I0
tp3175
g26
tp3176
Rp3177
(I1
(I2
tp3178
g33
I00
S'\x00\x00\x00\x00\x00\x00\xe8?\x00\x00\x00\x00\x00\x00\xd0?'
p3179
tp3180
bsg38
I3
sg64
I0
sg65
F0.0
ssg15
(dp3181
sbstp3182
Rp3183
(dp3184
g128
g3154
sg15
g3120
sg164
g9
(g10
g11
Ntp3185
Rp3186
(dp3187
g15
g3120
sg38
I3
sg39
g23
(g24
(I0
tp3188
g26
tp3189
Rp3190
(I1
(I2
tp3191
g33
I00
S'\x00\x00\x00\x00\x00\x00\xe0?\x00\x00\x00\x00\x00\x00\xe0?'
p3192
tp3193
bsg46
I1
sg48
(dp3194
g50
I0
sg51
(lp3195
g53
ag54
asg55
g10
sg56
F0.75
sg57
g23
(g24
(I0
tp3196
g26
tp3197
Rp3198
(I1
(I2
tp3199
g33
I00
S'\x00\x00\x00\x00\x00\x00\xe8?\x00\x00\x00\x00\x00\x00\xd0?'
p3200
tp3201
bsg38
I3
sg64
I0
sg65
F0.0
ssg66
g9
(g67
g17
(dp3202
tp3203
Rp3204
(dp3205
g48
g3045
sbsg128
g3154
sg139
(dp3206
g54
I1
sg53
I0
ssg141
g3124
sbsbstp3207
Rp3208
(dp3209
g48
g3045
sbsg128
g9
(g16
g17
(dp3210
I0
g23
(g24
(I0
tp3211
g26
tp3212
Rp3213
(I1
(I2
tp3214
g33
I00
S"N'\x8e\x8a\x81\x8f\xe8?\xc7b\xc7\xd5\xf9\xc1\xcd?"
p3215
tp3216
bsI1
g23
(g24
(I0
tp3217
g26
tp3218
Rp3219
(I1
(I2
tp3220
g33
I00
S'!\xd7\xc8<\xda>\xee?\xf9\x8dr3\\\x12\xac?'
p3221
tp3222
bstp3223
Rp3224
(dp3225
g22
g23
(g24
(I0
tp3226
g26
tp3227
Rp3228
(I1
(I2
tp3229
g33
I00
S'\x00\x00\x00\x00\x00\x00\xe0?\x00\x00\x00\x00\x00\x00\xe0?'
p3230
tp3231
bsbsg139
(dp3232
g54
I1
sg53
I0
ssg141
g2982
sbsg57
F0.75
sg300
F0.75
sg301
I2
satp3233
a((F0.75
F0.75
F0.75
S'Only B defects'
p3234
tp3235
(lp3236
(dp3237
g5
g3234
sg6
F0.75
sg7
F0.75
sg8
g9
(g10
g11
Ntp3238
Rp3239
(dp3240
g15
g9
(g16
g17
(dp3241
tp3242
Rp3243
(dp3244
g22
g23
(g24
(I0
tp3245
g26
tp3246
Rp3247
(I1
(I2
tp3248
g33
I00
S'\x00\x00\x00\x00\x00\x00\xe8?\x00\x00\x00\x00\x00\x00\xd0?'
p3249
tp3250
bsbsg38
I3
sg39
g23
(g24
(I0
tp3251
g26
tp3252
Rp3253
(I1
(I2
tp3254
g33
I00
S'\x00\x00\x00\x00\x00\x00\xe0?\x00\x00\x00\x00\x00\x00\xe0?'
p3255
tp3256
bsg46
g47
sg48
(dp3257
g50
I0
sg51
(lp3258
g53
ag54
asg55
g10
sg56
F0.75
sg57
g23
(g24
(I0
tp3259
g26
tp3260
Rp3261
(I1
(I2
tp3262
g33
I00
S'\x00\x00\x00\x00\x00\x00\xe8?\x00\x00\x00\x00\x00\x00\xd0?'
p3263
tp3264
bsg38
I3
sg64
I0
sg65
F0.0
ssg66
g9
(g67
g17
(dp3265
I0
g9
(g69
g17
(dp3266
g53
g9
(g53
g11
Ntp3267
Rp3268
(dp3269
g15
g9
(g16
g17
(dp3270
I1
g23
(g24
(I0
tp3271
g26
tp3272
Rp3273
(I1
(I2
tp3274
g33
I00
S'\x00\x00\x00\x00\x00\x00\xe8?\x00\x00\x00\x00\x00\x00\xd0?'
p3275
tp3276
bstp3277
Rp3278
(dp3279
g22
g23
(g24
(I0
tp3280
g26
tp3281
Rp3282
(I1
(I2
tp3283
g33
I00
S'\x00\x00\x00\x00\x00\x00\xe8?\x00\x00\x00\x00\x00\x00\xd0?'
p3284
tp3285
bsbsg90
g23
(g24
(I0
tp3286
g26
tp3287
Rp3288
(I1
(I1
tp3289
g97
I00
S'\x00\x00\x00\x00\x00\x00\x00\x00'
p3290
tp3291
bsg38
I3
sg39
g23
(g24
(I0
tp3292
g26
tp3293
Rp3294
(I1
(I2
tp3295
g33
I00
S'\x00\x00\x00\x00\x00\x00\xe0?\x00\x00\x00\x00\x00\x00\xe0?'
p3296
tp3297
bsg46
I0
sg48
(dp3298
g50
I0
sg51
(lp3299
g53
ag54
asg55
g10
sg56
F0.75
sg57
g23
(g24
(I0
tp3300
g26
tp3301
Rp3302
(I1
(I2
tp3303
g33
I00
S'\x00\x00\x00\x00\x00\x00\xe8?\x00\x00\x00\x00\x00\x00\xd0?'
p3304
tp3305
bsg38
I3
sg64
I0
sg65
F0.0
ssg66
g9
(g67
g17
(dp3306
tp3307
Rp3308
(dp3309
g48
(dp3310
g50
I0
sg51
(lp3311
g53
ag54
asg65
F0.0
sg56
F0.75
sg57
g23
(g24
(I0
tp3312
g26
tp3313
Rp3314
(I1
(I2
tp3315
g33
I00
S'\x00\x00\x00\x00\x00\x00\xe8?\x00\x00\x00\x00\x00\x00\xd0?'
p3316
tp3317
bsg38
I3
sg64
I0
sg55
g10
ssbsg128
g9
(g16
g17
(dp3318
tp3319
Rp3320
(dp3321
g22
g23
(g24
(I0
tp3322
g26
tp3323
Rp3324
(I1
(I2
tp3325
g33
I00
S'\x00\x00\x00\x00\x00\x00\xe0?\x00\x00\x00\x00\x00\x00\xe0?'
p3326
tp3327
bsbsg139
(dp3328
g54
I1
sg53
I0
ssg141
g23
(g24
(I0
tp3329
g26
tp3330
Rp3331
(I1
(I2
tp3332
g33
I00
S'\x00\x00\x00\x00\x00\x00\xe8?\x00\x00\x00\x00\x00\x00\xd0?'
p3333
tp3334
bsbsg54
g9
(g54
g11
Ntp3335
Rp3336
(dp3337
g128
(dp3338
sg38
I3
sg46
I0
sg48
(dp3339
g50
I0
sg51
(lp3340
g53
ag54
asg55
g10
sg56
F0.75
sg57
g23
(g24
(I0
tp3341
g26
tp3342
Rp3343
(I1
(I2
tp3344
g33
I00
S'\x00\x00\x00\x00\x00\x00\xe8?\x00\x00\x00\x00\x00\x00\xd0?'
p3345
tp3346
bsg38
I3
sg64
I0
sg65
F0.0
ssg15
(dp3347
sbstp3348
Rp3349
(dp3350
g128
g3320
sg15
g3278
sg164
g9
(g10
g11
Ntp3351
Rp3352
(dp3353
g15
g3278
sg38
I3
sg39
g23
(g24
(I0
tp3354
g26
tp3355
Rp3356
(I1
(I2
tp3357
g33
I00
S'\x00\x00\x00\x00\x00\x00\xe0?\x00\x00\x00\x00\x00\x00\xe0?'
p3358
tp3359
bsg46
I0
sg48
(dp3360
g50
I0
sg51
(lp3361
g53
ag54
asg55
g10
sg56
F0.75
sg57
g23
(g24
(I0
tp3362
g26
tp3363
Rp3364
(I1
(I2
tp3365
g33
I00
S'\x00\x00\x00\x00\x00\x00\xe8?\x00\x00\x00\x00\x00\x00\xd0?'
p3366
tp3367
bsg38
I3
sg64
I0
sg65
F0.0
ssg66
g9
(g67
g17
(dp3368
tp3369
Rp3370
(dp3371
g48
g3310
sbsg128
g3320
sg139
(dp3372
g54
I1
sg53
I0
ssg141
g3282
sbsbsI1
g9
(g69
g17
(dp3373
g53
g9
(g53
g11
Ntp3374
Rp3375
(dp3376
g15
g9
(g16
g17
(dp3377
I0
g23
(g24
(I0
tp3378
g26
tp3379
Rp3380
(I1
(I2
tp3381
g33
I00
S'\x00\x00\x00\x00\x00\x00\xe8?\x00\x00\x00\x00\x00\x00\xd0?'
p3382
tp3383
bstp3384
Rp3385
(dp3386
g22
g23
(g24
(I0
tp3387
g26
tp3388
Rp3389
(I1
(I2
tp3390
g33
I00
S'\x00\x00\x00\x00\x00\x00\xe8?\x00\x00\x00\x00\x00\x00\xd0?'
p3391
tp3392
bsbsg90
g23
(g24
(I0
tp3393
g26
tp3394
Rp3395
(I1
(I1
tp3396
g97
I00
S'\x00\x00\x00\x00\x00\x00\x00\x00'
p3397
tp3398
bsg38
I3
sg39
g23
(g24
(I0
tp3399
g26
tp3400
Rp3401
(I1
(I2
tp3402
g33
I00
S'\x00\x00\x00\x00\x00\x00\xe0?\x00\x00\x00\x00\x00\x00\xe0?'
p3403
tp3404
bsg46
I1
sg48
(dp3405
g50
I0
sg51
(lp3406
g53
ag54
asg55
g10
sg56
F0.75
sg57
g23
(g24
(I0
tp3407
g26
tp3408
Rp3409
(I1
(I2
tp3410
g33
I00
S'\x00\x00\x00\x00\x00\x00\xe8?\x00\x00\x00\x00\x00\x00\xd0?'
p3411
tp3412
bsg38
I3
sg64
I0
sg65
F0.0
ssg66
g9
(g67
g17
(dp3413
tp3414
Rp3415
(dp3416
g48
g3310
sbsg128
g9
(g16
g17
(dp3417
tp3418
Rp3419
(dp3420
g22
g23
(g24
(I0
tp3421
g26
tp3422
Rp3423
(I1
(I2
tp3424
g33
I00
S'\x00\x00\x00\x00\x00\x00\xe0?\x00\x00\x00\x00\x00\x00\xe0?'
p3425
tp3426
bsbsg139
(dp3427
g54
I1
sg53
I0
ssg141
g23
(g24
(I0
tp3428
g26
tp3429
Rp3430
(I1
(I2
tp3431
g33
I00
S'\x00\x00\x00\x00\x00\x00\xe8?\x00\x00\x00\x00\x00\x00\xd0?'
p3432
tp3433
bsbsg54
g9
(g54
g11
Ntp3434
Rp3435
(dp3436
g128
(dp3437
sg38
I3
sg46
I1
sg48
(dp3438
g50
I0
sg51
(lp3439
g53
ag54
asg55
g10
sg56
F0.75
sg57
g23
(g24
(I0
tp3440
g26
tp3441
Rp3442
(I1
(I2
tp3443
g33
I00
S'\x00\x00\x00\x00\x00\x00\xe8?\x00\x00\x00\x00\x00\x00\xd0?'
p3444
tp3445
bsg38
I3
sg64
I0
sg65
F0.0
ssg15
(dp3446
sbstp3447
Rp3448
(dp3449
g128
g3419
sg15
g3385
sg164
g9
(g10
g11
Ntp3450
Rp3451
(dp3452
g15
g3385
sg38
I3
sg39
g23
(g24
(I0
tp3453
g26
tp3454
Rp3455
(I1
(I2
tp3456
g33
I00
S'\x00\x00\x00\x00\x00\x00\xe0?\x00\x00\x00\x00\x00\x00\xe0?'
p3457
tp3458
bsg46
I1
sg48
(dp3459
g50
I0
sg51
(lp3460
g53
ag54
asg55
g10
sg56
F0.75
sg57
g23
(g24
(I0
tp3461
g26
tp3462
Rp3463
(I1
(I2
tp3464
g33
I00
S'\x00\x00\x00\x00\x00\x00\xe8?\x00\x00\x00\x00\x00\x00\xd0?'
p3465
tp3466
bsg38
I3
sg64
I0
sg65
F0.0
ssg66
g9
(g67
g17
(dp3467
tp3468
Rp3469
(dp3470
g48
g3310
sbsg128
g3419
sg139
(dp3471
g54
I1
sg53
I0
ssg141
g3389
sbsbstp3472
Rp3473
(dp3474
g48
g3310
sbsg128
g9
(g16
g17
(dp3475
tp3476
Rp3477
(dp3478
g22
g23
(g24
(I0
tp3479
g26
tp3480
Rp3481
(I1
(I2
tp3482
g33
I00
S'\x00\x00\x00\x00\x00\x00\xe0?\x00\x00\x00\x00\x00\x00\xe0?'
p3483
tp3484
bsbsg139
(dp3485
g54
I1
sg53
I0
ssg141
g3247
sbsg300
F0.75
sg301
I0
sa(dp3486
g5
g3234
sg7
F0.75
sg8
g9
(g10
g11
Ntp3487
Rp3488
(dp3489
g15
g9
(g16
g17
(dp3490
I0
g23
(g24
(I0
tp3491
g26
tp3492
Rp3493
(I1
(I2
tp3494
g33
I00
S'\x00\x00\x00\x00\x00\x00\xe8?\x00\x00\x00\x00\x00\x00\xd0?'
p3495
tp3496
bsI1
g23
(g24
(I0
tp3497
g26
tp3498
Rp3499
(I1
(I2
tp3500
g33
I00
S'\xe7\xd3t\x8aPZ\xd7?\x0c\x96\xc5\xba\xd7R\xe4?'
p3501
tp3502
bstp3503
Rp3504
(dp3505
g22
g23
(g24
(I0
tp3506
g26
tp3507
Rp3508
(I1
(I2
tp3509
g33
I00
S'\x00\x00\x00\x00\x00\x00\xe8?\x00\x00\x00\x00\x00\x00\xd0?'
p3510
tp3511
bsbsg38
I3
sg39
g23
(g24
(I0
tp3512
g26
tp3513
Rp3514
(I1
(I2
tp3515
g33
I00
S'\x00\x00\x00\x00\x00\x00\xe0?\x00\x00\x00\x00\x00\x00\xe0?'
p3516
tp3517
bsg46
g47
sg48
(dp3518
g50
I0
sg51
(lp3519
g53
ag54
asg55
g10
sg56
F0.75
sg57
g23
(g24
(I0
tp3520
g26
tp3521
Rp3522
(I1
(I2
tp3523
g33
I00
S'\x00\x00\x00\x00\x00\x00\xe8?\x00\x00\x00\x00\x00\x00\xd0?'
p3524
tp3525
bsg38
I3
sg64
I0
sg65
F0.0
ssg66
g9
(g67
g17
(dp3526
I0
g9
(g69
g17
(dp3527
g53
g9
(g53
g11
Ntp3528
Rp3529
(dp3530
g15
g9
(g16
g17
(dp3531
I1
g23
(g24
(I0
tp3532
g26
tp3533
Rp3534
(I1
(I2
tp3535
g33
I00
S'\x00\x00\x00\x00\x00\x00\xe8?\x00\x00\x00\x00\x00\x00\xd0?'
p3536
tp3537
bstp3538
Rp3539
(dp3540
g22
g23
(g24
(I0
tp3541
g26
tp3542
Rp3543
(I1
(I2
tp3544
g33
I00
S'\x00\x00\x00\x00\x00\x00\xe8?\x00\x00\x00\x00\x00\x00\xd0?'
p3545
tp3546
bsbsg90
g23
(g24
(I0
tp3547
g26
tp3548
Rp3549
(I1
(I1
tp3550
g97
I00
S'\x00\x00\x00\x00\x00\x00\x00\x00'
p3551
tp3552
bsg38
I3
sg39
g23
(g24
(I0
tp3553
g26
tp3554
Rp3555
(I1
(I2
tp3556
g33
I00
S'\x00\x00\x00\x00\x00\x00\xe0?\x00\x00\x00\x00\x00\x00\xe0?'
p3557
tp3558
bsg46
I0
sg48
(dp3559
g50
I0
sg51
(lp3560
g53
ag54
asg55
g10
sg56
F0.75
sg57
g23
(g24
(I0
tp3561
g26
tp3562
Rp3563
(I1
(I2
tp3564
g33
I00
S'\x00\x00\x00\x00\x00\x00\xe8?\x00\x00\x00\x00\x00\x00\xd0?'
p3565
tp3566
bsg38
I3
sg64
I0
sg65
F0.0
ssg66
g9
(g67
g17
(dp3567
tp3568
Rp3569
(dp3570
g48
(dp3571
g50
I0
sg51
(lp3572
g53
ag54
asg65
F0.0
sg56
F0.75
sg57
g23
(g24
(I0
tp3573
g26
tp3574
Rp3575
(I1
(I2
tp3576
g33
I00
S'\x00\x00\x00\x00\x00\x00\xe8?\x00\x00\x00\x00\x00\x00\xd0?'
p3577
tp3578
bsg38
I3
sg64
I0
sg55
g10
ssbsg128
g9
(g16
g17
(dp3579
tp3580
Rp3581
(dp3582
g22
g23
(g24
(I0
tp3583
g26
tp3584
Rp3585
(I1
(I2
tp3586
g33
I00
S'\x00\x00\x00\x00\x00\x00\xe0?\x00\x00\x00\x00\x00\x00\xe0?'
p3587
tp3588
bsbsg139
(dp3589
g54
I1
sg53
I0
ssg141
g23
(g24
(I0
tp3590
g26
tp3591
Rp3592
(I1
(I2
tp3593
g33
I00
S'\x00\x00\x00\x00\x00\x00\xe8?\x00\x00\x00\x00\x00\x00\xd0?'
p3594
tp3595
bsbsg54
g9
(g54
g11
Ntp3596
Rp3597
(dp3598
g128
(dp3599
sg38
I3
sg46
I0
sg48
(dp3600
g50
I0
sg51
(lp3601
g53
ag54
asg55
g10
sg56
F0.75
sg57
g23
(g24
(I0
tp3602
g26
tp3603
Rp3604
(I1
(I2
tp3605
g33
I00
S'\x00\x00\x00\x00\x00\x00\xe8?\x00\x00\x00\x00\x00\x00\xd0?'
p3606
tp3607
bsg38
I3
sg64
I0
sg65
F0.0
ssg15
(dp3608
sbstp3609
Rp3610
(dp3611
g128
g3581
sg15
g3539
sg164
g9
(g10
g11
Ntp3612
Rp3613
(dp3614
g15
g3539
sg38
I3
sg39
g23
(g24
(I0
tp3615
g26
tp3616
Rp3617
(I1
(I2
tp3618
g33
I00
S'\x00\x00\x00\x00\x00\x00\xe0?\x00\x00\x00\x00\x00\x00\xe0?'
p3619
tp3620
bsg46
I0
sg48
(dp3621
g50
I0
sg51
(lp3622
g53
ag54
asg55
g10
sg56
F0.75
sg57
g23
(g24
(I0
tp3623
g26
tp3624
Rp3625
(I1
(I2
tp3626
g33
I00
S'\x00\x00\x00\x00\x00\x00\xe8?\x00\x00\x00\x00\x00\x00\xd0?'
p3627
tp3628
bsg38
I3
sg64
I0
sg65
F0.0
ssg66
g9
(g67
g17
(dp3629
tp3630
Rp3631
(dp3632
g48
g3571
sbsg128
g3581
sg139
(dp3633
g54
I1
sg53
I0
ssg141
g3543
sbsbsI1
g9
(g69
g17
(dp3634
g53
g9
(g53
g11
Ntp3635
Rp3636
(dp3637
g15
g9
(g16
g17
(dp3638
I0
g23
(g24
(I0
tp3639
g26
tp3640
Rp3641
(I1
(I2
tp3642
g33
I00
S'\x00\x00\x00\x00\x00\x00\xe8?\x00\x00\x00\x00\x00\x00\xd0?'
p3643
tp3644
bstp3645
Rp3646
(dp3647
g22
g23
(g24
(I0
tp3648
g26
tp3649
Rp3650
(I1
(I2
tp3651
g33
I00
S'\x00\x00\x00\x00\x00\x00\xe8?\x00\x00\x00\x00\x00\x00\xd0?'
p3652
tp3653
bsbsg90
g23
(g24
(I0
tp3654
g26
tp3655
Rp3656
(I1
(I1
tp3657
g97
I00
S'\x00\x00\x00\x00\x00\x00\x00\x00'
p3658
tp3659
bsg38
I3
sg39
g23
(g24
(I0
tp3660
g26
tp3661
Rp3662
(I1
(I2
tp3663
g33
I00
S'\x00\x00\x00\x00\x00\x00\xe0?\x00\x00\x00\x00\x00\x00\xe0?'
p3664
tp3665
bsg46
I1
sg48
(dp3666
g50
I0
sg51
(lp3667
g53
ag54
asg55
g10
sg56
F0.75
sg57
g23
(g24
(I0
tp3668
g26
tp3669
Rp3670
(I1
(I2
tp3671
g33
I00
S'\x00\x00\x00\x00\x00\x00\xe8?\x00\x00\x00\x00\x00\x00\xd0?'
p3672
tp3673
bsg38
I3
sg64
I0
sg65
F0.0
ssg66
g9
(g67
g17
(dp3674
tp3675
Rp3676
(dp3677
g48
g3571
sbsg128
g9
(g16
g17
(dp3678
tp3679
Rp3680
(dp3681
g22
g23
(g24
(I0
tp3682
g26
tp3683
Rp3684
(I1
(I2
tp3685
g33
I00
S'\x00\x00\x00\x00\x00\x00\xe0?\x00\x00\x00\x00\x00\x00\xe0?'
p3686
tp3687
bsbsg139
(dp3688
g54
I1
sg53
I0
ssg141
g23
(g24
(I0
tp3689
g26
tp3690
Rp3691
(I1
(I2
tp3692
g33
I00
S'\x00\x00\x00\x00\x00\x00\xe8?\x00\x00\x00\x00\x00\x00\xd0?'
p3693
tp3694
bsbsg54
g9
(g54
g11
Ntp3695
Rp3696
(dp3697
g128
(dp3698
sg38
I3
sg46
I1
sg48
(dp3699
g50
I0
sg51
(lp3700
g53
ag54
asg55
g10
sg56
F0.75
sg57
g23
(g24
(I0
tp3701
g26
tp3702
Rp3703
(I1
(I2
tp3704
g33
I00
S'\x00\x00\x00\x00\x00\x00\xe8?\x00\x00\x00\x00\x00\x00\xd0?'
p3705
tp3706
bsg38
I3
sg64
I0
sg65
F0.0
ssg15
(dp3707
sbstp3708
Rp3709
(dp3710
g128
g3680
sg15
g3646
sg164
g9
(g10
g11
Ntp3711
Rp3712
(dp3713
g15
g3646
sg38
I3
sg39
g23
(g24
(I0
tp3714
g26
tp3715
Rp3716
(I1
(I2
tp3717
g33
I00
S'\x00\x00\x00\x00\x00\x00\xe0?\x00\x00\x00\x00\x00\x00\xe0?'
p3718
tp3719
bsg46
I1
sg48
(dp3720
g50
I0
sg51
(lp3721
g53
ag54
asg55
g10
sg56
F0.75
sg57
g23
(g24
(I0
tp3722
g26
tp3723
Rp3724
(I1
(I2
tp3725
g33
I00
S'\x00\x00\x00\x00\x00\x00\xe8?\x00\x00\x00\x00\x00\x00\xd0?'
p3726
tp3727
bsg38
I3
sg64
I0
sg65
F0.0
ssg66
g9
(g67
g17
(dp3728
tp3729
Rp3730
(dp3731
g48
g3571
sbsg128
g3680
sg139
(dp3732
g54
I1
sg53
I0
ssg141
g3650
sbsbstp3733
Rp3734
(dp3735
g48
g3571
sbsg128
g9
(g16
g17
(dp3736
I1
g23
(g24
(I0
tp3737
g26
tp3738
Rp3739
(I1
(I2
tp3740
g33
I00
S'\xff\xb4B\x03\xb7\x92\xc4?\xc1R/?R\xdb\xea?'
p3741
tp3742
bstp3743
Rp3744
(dp3745
g22
g23
(g24
(I0
tp3746
g26
tp3747
Rp3748
(I1
(I2
tp3749
g33
I00
S'\x00\x00\x00\x00\x00\x00\xe0?\x00\x00\x00\x00\x00\x00\xe0?'
p3750
tp3751
bsbsg139
(dp3752
g54
I1
sg53
I0
ssg141
g3508
sbsg57
F0.75
sg300
F0.75
sg301
I1
satp3753
a.